(lp0
(V22073146
p1
I2038
tp2
a(V40319066
p3
I302
tp4
a(V48739932
p5
I124
tp6
a(V2312299660
p7
I61
tp8
a(V280572521
p9
I1267
tp10
a(V41625051
p11
I145
tp12
a(V221899435
p13
I365
tp14
a(V36089392
p15
I500
tp16
a(V476337209
p17
I1242
tp18
a(V305571382
p19
I48
tp20
a(V435321951
p21
I440
tp22
a(V39822256
p23
I180
tp24
a(V3068966814
p25
I208
tp26
a(V30290778
p27
I420
tp28
a(V3389486308
p29
I889
tp30
a(V211150550
p31
I320
tp32
a(V2264634042
p33
I853
tp34
a(V62597423
p35
I752
tp36
a(V597820633
p37
I196
tp38
a(V613858801
p39
I672
tp40
a(V477710409
p41
I49
tp42
a(V137061901
p43
I225
tp44
a(V28769199
p45
I1893
tp46
a(V404712651
p47
I568
tp48
a(V2339480196
p49
I639
tp50
a(V2921952326
p51
I216
tp52
a(V160411644
p53
I66
tp54
a(V18587683
p55
I1652
tp56
a(V231916383
p57
I67
tp58
a(V189833166
p59
I791
tp60
a(V477803311
p61
I273
tp62
a(V960834355
p63
I303
tp64
a(V436799344
p65
I337
tp66
a(V45683950
p67
I1438
tp68
a(V250233843
p69
I181
tp70
a(V189784702
p71
I342
tp72
a(V362646324
p73
I565
tp74
a(V2814136474
p75
I131
tp76
a(V2366528114
p77
I287
tp78
a(V2497112545
p79
I45
tp80
a(V303919708
p81
I121
tp82
a(V602449513
p83
I869
tp84
a(V49255986
p85
I363
tp86
a(V20094745
p87
I195
tp88
a(V415932537
p89
I376
tp90
a(V22320655
p91
I211
tp92
a(V378071379
p93
I2046
tp94
a(V1339912453
p95
I515
tp96
a(V1020527971
p97
I502
tp98
a(V35341081
p99
I638
tp100
a(V33584933
p101
I23
tp102
a(V127034427
p103
I685
tp104
a(V216843073
p105
I1038
tp106
a(V1883588876
p107
I816
tp108
a(V1289079614
p109
I333
tp110
a(V253079875
p111
I71
tp112
a(V17768984
p113
I977
tp114
a(V1708603771
p115
I194
tp116
a(V2400480938
p117
I333
tp118
a(V25812544
p119
I549
tp120
a(V1163696714
p121
I163
tp122
a(V2159390574
p123
I98
tp124
a(V291965445
p125
I587
tp126
a(V501157154
p127
I500
tp128
a(V72185690
p129
I57
tp130
a(V2269536694
p131
I220
tp132
a(V507182504
p133
I156
tp134
a(V224374679
p135
I122
tp136
a(V2217235134
p137
I40
tp138
a(V3299357675
p139
I93
tp140
a(V1241940475
p141
I193
tp142
a(V4039269982
p143
I36
tp144
a(V568403097
p145
I110
tp146
a(V293900339
p147
I64
tp148
a(V160298969
p149
I3708
tp150
a(V9833332
p151
I937
tp152
a(V110781385
p153
I1386
tp154
a(V233247104
p155
I207
tp156
a(V497194674
p157
I189
tp158
a(V29918851
p159
I90
tp160
a(V437603468
p161
I83
tp162
a(V259828039
p163
I323
tp164
a(V15058596
p165
I3222
tp166
a(V635911619
p167
I574
tp168
a(V376154503
p169
I1000
tp170
a(V193556960
p171
I35
tp172
a(V827696168
p173
I105
tp174
a(V432726108
p175
I387
tp176
a(V2886097605
p177
I40
tp178
a(V1126843458
p179
I107
tp180
a(V505545995
p181
I367
tp182
a(V261354349
p183
I322
tp184
a(V1449714422
p185
I42
tp186
a(V217953698
p187
I431
tp188
a(V493475736
p189
I23
tp190
a(V1449732775
p191
I61
tp192
a(V1621323433
p193
I134
tp194
a(V3346720593
p195
I31
tp196
a(V324725055
p197
I47
tp198
a(V2584946731
p199
I82
tp200
a(V447129562
p201
I3367
tp202
a(V21301571
p203
I1513
tp204
a(V38301261
p205
I390
tp206
a(V1154158434
p207
I177
tp208
a(V38040229
p209
I2815
tp210
a(V442211514
p211
I69
tp212
a(V221138145
p213
I59
tp214
a(V222069786
p215
I27
tp216
a(V2370520826
p217
I186
tp218
a(V2439074089
p219
I361
tp220
a(V611946517
p221
I134
tp222
a(V2854509063
p223
I188
tp224
a(V287684753
p225
I571
tp226
a(V23249152
p227
I1065
tp228
a(V165432070
p229
I1541
tp230
a(V35239881
p231
I326
tp232
a(V21579552
p233
I668
tp234
a(V2756364883
p235
I27
tp236
a(V166559015
p237
I214
tp238
a(V446054416
p239
I65
tp240
a(V104232522
p241
I197
tp242
a(V20230811
p243
I441
tp244
a(V36998358
p245
I221
tp246
a(V2766695988
p247
I202
tp248
a(V248401870
p249
I374
tp250
a(V38493354
p251
I47
tp252
a(V1596786836
p253
I143
tp254
a(V1122469292
p255
I11
tp256
a(V592276241
p257
I153
tp258
a(V1941184680
p259
I40
tp260
a(V22503672
p261
I403
tp262
a(V74104397
p263
I1200
tp264
a(V3100250551
p265
I1888
tp266
a(V281869839
p267
I582
tp268
a(V2193096290
p269
I175
tp270
a(V371074938
p271
I273
tp272
a(V2613879180
p273
I133
tp274
a(V1099841593
p275
I451
tp276
a(V2260954471
p277
I632
tp278
a(V404056339
p279
I519
tp280
a(V61070331
p281
I65
tp282
a(V592355101
p283
I165
tp284
a(V122605424
p285
I530
tp286
a(V2330570023
p287
I57
tp288
a(V18989537
p289
I1691
tp290
a(V34389648
p291
I913
tp292
a(V259554796
p293
I638
tp294
a(V254507476
p295
I1783
tp296
a(V1402890878
p297
I255
tp298
a(V29017307
p299
I4106
tp300
a(V3409634427
p301
I70
tp302
a(V1370906497
p303
I1295
tp304
a(V14933840
p305
I187
tp306
a(V2928995946
p307
I187
tp308
a(V2541966836
p309
I104
tp310
a(V132558478
p311
I530
tp312
a(V230462842
p313
I228
tp314
a(V2335119450
p315
I192
tp316
a(V1265980242
p317
I118
tp318
a(V190639051
p319
I1327
tp320
a(V35005041
p321
I213
tp322
a(V601154827
p323
I2995
tp324
a(V29737876
p325
I358
tp326
a(V1278580020
p327
I816
tp328
a(V1622183040
p329
I260
tp330
a(V2914749442
p331
I186
tp332
a(V129481550
p333
I365
tp334
a(V3018582674
p335
I54
tp336
a(V612135517
p337
I636
tp338
a(V712661461
p339
I740
tp340
a(V512600867
p341
I140
tp342
a(V70235565
p343
I58
tp344
a(V874011066
p345
I291
tp346
a(V40326161
p347
I40
tp348
a(V149560373
p349
I692
tp350
a(V2765603292
p351
I199
tp352
a(V262523943
p353
I202
tp354
a(V894442988
p355
I208
tp356
a(V435846267
p357
I203
tp358
a(V30117375
p359
I1197
tp360
a(V60665553
p361
I60
tp362
a(V2889314461
p363
I326
tp364
a(V188097788
p365
I177
tp366
a(V91321449
p367
I249
tp368
a(V206003710
p369
I218
tp370
a(V3331288287
p371
I48
tp372
a(V432797586
p373
I337
tp374
a(V2499221053
p375
I53
tp376
a(V2932344033
p377
I99
tp378
a(V106800933
p379
I482
tp380
a(V2904641538
p381
I170
tp382
a(V110277416
p383
I475
tp384
a(V3178257278
p385
I92
tp386
a(V1180576358
p387
I189
tp388
a(V2351072768
p389
I99
tp390
a(V133316482
p391
I603
tp392
a(V90524077
p393
I326
tp394
a(V35643668
p395
I991
tp396
a(V30684067
p397
I756
tp398
a(V115732025
p399
I324
tp400
a(V1096955670
p401
I209
tp402
a(V103057619
p403
I4006
tp404
a(V403156662
p405
I155
tp406
a(V2215775790
p407
I19
tp408
a(V237994484
p409
I121
tp410
a(V1210112364
p411
I157
tp412
a(V333642436
p413
I175
tp414
a(V1242611227
p415
I519
tp416
a(V78959991
p417
I1101
tp418
a(V847768752
p419
I1449
tp420
a(V185850034
p421
I80
tp422
a(V183739096
p423
I317
tp424
a(V230517296
p425
I95
tp426
a(V36761914
p427
I935
tp428
a(V471121755
p429
I609
tp430
a(V41093053
p431
I387
tp432
a(V2646506552
p433
I249
tp434
a(V1201107619
p435
I117
tp436
a(V87133189
p437
I1568
tp438
a(V1904900683
p439
I77
tp440
a(V290087156
p441
I243
tp442
a(V1904821021
p443
I167
tp444
a(V109509176
p445
I498
tp446
a(V66985306
p447
I822
tp448
a(V2796128924
p449
I52
tp450
a(V604160529
p451
I1508
tp452
a(V322138756
p453
I93
tp454
a(V134803959
p455
I1094
tp456
a(V1557281102
p457
I220
tp458
a(V2250788179
p459
I12
tp460
a(V322711605
p461
I35
tp462
a(V44344664
p463
I214
tp464
a(V627912564
p465
I286
tp466
a(V975116011
p467
I455
tp468
a(V222184684
p469
I1013
tp470
a(V381321363
p471
I111
tp472
a(V125987346
p473
I779
tp474
a(V241205239
p475
I252
tp476
a(V515546129
p477
I123
tp478
a(V26849804
p479
I1090
tp480
a(V20159497
p481
I1921
tp482
a(V8256132
p483
I816
tp484
a(V20704152
p485
I351
tp486
a(V363365584
p487
I1800
tp488
a(V19087621
p489
I115
tp490
a(V33833817
p491
I316
tp492
a(V56281348
p493
I723
tp494
a(V217159658
p495
I965
tp496
a(V1570835496
p497
I66
tp498
a(V1869809930
p499
I131
tp500
a(V22960783
p501
I132
tp502
a(V3181160665
p503
I150
tp504
a(V67659877
p505
I535
tp506
a(V28924498
p507
I142
tp508
a(V165288279
p509
I194
tp510
a(V28320231
p511
I80
tp512
a(V121989430
p513
I43
tp514
a(V263845974
p515
I293
tp516
a(V324039794
p517
I485
tp518
a(V153988107
p519
I120
tp520
a(V124585235
p521
I2507
tp522
a(V297289531
p523
I182
tp524
a(V4120961
p525
I530
tp526
a(V322963627
p527
I381
tp528
a(V75892622
p529
I180
tp530
a(V305821203
p531
I414
tp532
a(V68900631
p533
I66
tp534
a(V2378021762
p535
I146
tp536
a(V15711884
p537
I138
tp538
a(V915436742
p539
I1206
tp540
a(V406289145
p541
I196
tp542
a(V2828459470
p543
I618
tp544
a(V53567779
p545
I450
tp546
a(V124779106
p547
I100
tp548
a(V122994768
p549
I1563
tp550
a(V312812068
p551
I147
tp552
a(V286955177
p553
I70
tp554
a(V28425090
p555
I782
tp556
a(V556507503
p557
I82
tp558
a(V1380880022
p559
I131
tp560
a(V344829038
p561
I58
tp562
a(V175584371
p563
I943
tp564
a(V284946253
p565
I87
tp566
a(V3225468232
p567
I190
tp568
a(V33447326
p569
I618
tp570
a(V14735033
p571
I2187
tp572
a(V766003172
p573
I30
tp574
a(V260856314
p575
I66
tp576
a(V246134345
p577
I2768
tp578
a(V2450150143
p579
I132
tp580
a(V288236378
p581
I209
tp582
a(V2857621569
p583
I45
tp584
a(V216865166
p585
I150
tp586
a(V1377472224
p587
I150
tp588
a(V44798696
p589
I292
tp590
a(V1077850658
p591
I222
tp592
a(V425286807
p593
I418
tp594
a(V1228138309
p595
I96
tp596
a(V14318277
p597
I1609
tp598
a(V1915142821
p599
I37
tp600
a(V33275038
p601
I1170
tp602
a(V1603903236
p603
I46
tp604
a(V2874447922
p605
I131
tp606
a(V991403251
p607
I403
tp608
a(V131747755
p609
I65
tp610
a(V1023491131
p611
I44
tp612
a(V1135299488
p613
I5442
tp614
a(V319727721
p615
I225
tp616
a(V531858368
p617
I417
tp618
a(V419965064
p619
I506
tp620
a(V43094882
p621
I39
tp622
a(V1292305116
p623
I281
tp624
a(V15264378
p625
I1605
tp626
a(V1485007568
p627
I1450
tp628
a(V2231683904
p629
I647
tp630
a(V52809394
p631
I91
tp632
a(V553800052
p633
I55
tp634
a(V24065947
p635
I1713
tp636
a(V2920720174
p637
I303
tp638
a(V225018425
p639
I75
tp640
a(V221098400
p641
I190
tp642
a(V390399332
p643
I154
tp644
a(V270597782
p645
I55
tp646
a(V2786541083
p647
I793
tp648
a(V147615740
p649
I60
tp650
a(V1258968277
p651
I229
tp652
a(V710868008
p653
I805
tp654
a(V1448127140
p655
I78
tp656
a(V1101216644
p657
I161
tp658
a(V396075303
p659
I40
tp660
a(V19627971
p661
I2005
tp662
a(V2212755500
p663
I62
tp664
a(V632296843
p665
I166
tp666
a(V34521445
p667
I856
tp668
a(V222187111
p669
I225
tp670
a(V34907324
p671
I440
tp672
a(V15001676
p673
I305
tp674
a(V18455693
p675
I2594
tp676
a(V2405378612
p677
I145
tp678
a(V1418264336
p679
I229
tp680
a(V243618345
p681
I1803
tp682
a(V1349856667
p683
I355
tp684
a(V1671367940
p685
I434
tp686
a(V16999433
p687
I2019
tp688
a(V40811479
p689
I194
tp690
a(V235422006
p691
I171
tp692
a(V128241358
p693
I162
tp694
a(V210153565
p695
I1416
tp696
a(V1510539757
p697
I248
tp698
a(V1890299826
p699
I301
tp700
a(V246248928
p701
I19
tp702
a(V369162851
p703
I193
tp704
a(V2788047050
p705
I152
tp706
a(V97927889
p707
I149
tp708
a(V230254138
p709
I71
tp710
a(V388347822
p711
I59
tp712
a(V95083293
p713
I791
tp714
a(V802577467
p715
I41
tp716
a(V17929738
p717
I49
tp718
a(V324995389
p719
I70
tp720
a(V224459010
p721
I159
tp722
a(V218359601
p723
I306
tp724
a(V228596812
p725
I1305
tp726
a(V706119139
p727
I202
tp728
a(V104712815
p729
I1453
tp730
a(V123125462
p731
I524
tp732
a(V1350878462
p733
I225
tp734
a(V261024504
p735
I1447
tp736
a(V921464372
p737
I174
tp738
a(V241235809
p739
I261
tp740
a(V779088110
p741
I70
tp742
a(V20832994
p743
I454
tp744
a(V412611622
p745
I1181
tp746
a(V217824512
p747
I94
tp748
a(V606340754
p749
I173
tp750
a(V1511018348
p751
I316
tp752
a(V327256304
p753
I305
tp754
a(V361684968
p755
I340
tp756
a(V243973091
p757
I265
tp758
a(V1359774865
p759
I49
tp760
a(V87808505
p761
I285
tp762
a(V1452499015
p763
I10
tp764
a(V3803301083
p765
I456
tp766
a(V21277169
p767
I6855
tp768
a(V36102165
p769
I2012
tp770
a(V79563975
p771
I319
tp772
a(V593739845
p773
I324
tp774
a(V317382666
p775
I482
tp776
a(V2334001244
p777
I183
tp778
a(V46192094
p779
I112
tp780
a(V3151954471
p781
I259
tp782
a(V962071604
p783
I309
tp784
a(V2687953034
p785
I16
tp786
a(V1241963102
p787
I17
tp788
a(V113726458
p789
I51
tp790
a(V299891017
p791
I158
tp792
a(V181307535
p793
I1772
tp794
a(V304793011
p795
I338
tp796
a(V213118052
p797
I494
tp798
a(V430949694
p799
I738
tp800
a(V734680260
p801
I3552
tp802
a(V78563470
p803
I324
tp804
a(V2915763990
p805
I187
tp806
a(V2812981805
p807
I117
tp808
a(V98736295
p809
I2195
tp810
a(V132303921
p811
I1067
tp812
a(V114590287
p813
I242
tp814
a(V16252960
p815
I731
tp816
a(V414093082
p817
I126
tp818
a(V2180164206
p819
I4
tp820
a(V471478950
p821
I180
tp822
a(V36704033
p823
I6765
tp824
a(V385245375
p825
I93
tp826
a(V230218419
p827
I365
tp828
a(V2296376221
p829
I1973
tp830
a(V21003769
p831
I360
tp832
a(V2695899913
p833
I2116
tp834
a(V102710585
p835
I174
tp836
a(V132414442
p837
I163
tp838
a(V315671241
p839
I16
tp840
a(V222611509
p841
I34
tp842
a(V2321522203
p843
I59
tp844
a(V2546508666
p845
I449
tp846
a(V897779502
p847
I59
tp848
a(V1371737600
p849
I85
tp850
a(V2997013028
p851
I97
tp852
a(V484773756
p853
I218
tp854
a(V20596865
p855
I1465
tp856
a(V184345490
p857
I233
tp858
a(V162419093
p859
I474
tp860
a(V41140413
p861
I14625
tp862
a(V274809595
p863
I227
tp864
a(V2263482182
p865
I36
tp866
a(V2453586834
p867
I214
tp868
a(V15569344
p869
I142
tp870
a(V123997989
p871
I135
tp872
a(V760883833
p873
I21
tp874
a(V105353526
p875
I98087
tp876
a(V15897179
p877
I31944
tp878
a(V2149877280
p879
I35657
tp880
a(V259059584
p881
I32063
tp882
a(V16429977
p883
I126091
tp884
a(V26705006
p885
I24887
tp886
a(V3329528134
p887
I35297
tp888
a(V795607777
p889
I6498
tp890
a(V2964569193
p891
I3117
tp892
a(V2864524709
p893
I2741
tp894
a(V2432028553
p895
I16650
tp896
a(V2580713054
p897
I5267
tp898
a(V324948099
p899
I4041
tp900
a(V2563262155
p901
I12642
tp902
a(V18164662
p903
I167816
tp904
a(V2444437262
p905
I10093
tp906
a(V197282701
p907
I35153
tp908
a(V929651388
p909
I460
tp910
a(V210506986
p911
I8107
tp912
a(V141928893
p913
I1400
tp914
a(V174965200
p915
I53987
tp916
a(V461452739
p917
I2820
tp918
a(V110547073
p919
I10883
tp920
a(V17426530
p921
I15505
tp922
a(V17622474
p923
I196618
tp924
a(V1534322197
p925
I39647
tp926
a(V50764888
p927
I17806
tp928
a(V8736882
p929
I1089444
tp930
a(V15749983
p931
I518121
tp932
a(V1674013885
p933
I4250
tp934
a(V551462946
p935
I8313
tp936
a(V31437099
p937
I4241
tp938
a(V37606449
p939
I22780
tp940
a(V97778978
p941
I36741
tp942
a(V17473062
p943
I37541
tp944
a(V262998998
p945
I2202
tp946
a(V224240358
p947
I30348
tp948
a(V217949303
p949
I26435
tp950
a(V482362854
p951
I19991
tp952
a(V217090691
p953
I2998
tp954
a(V2959141256
p955
I2070
tp956
a(V357091182
p957
I13084
tp958
a(V58792459
p959
I2563
tp960
a(V23390520
p961
I47149
tp962
a(V14744629
p963
I1054
tp964
a(V19050000
p965
I113382
tp966
a(V373102216
p967
I17231
tp968
a(V62562916
p969
I26275
tp970
a(V241789496
p971
I23979
tp972
a(V612933226
p973
I3767
tp974
a(V514835972
p975
I10878
tp976
a(V85253884
p977
I14713
tp978
a(V445291350
p979
I6570
tp980
a(V14297693
p981
I34092
tp982
a(V236657131
p983
I12972
tp984
a(V226828258
p985
I70859
tp986
a(V19246382
p987
I15062
tp988
a(V34618161
p989
I795
tp990
a(V14126376
p991
I7540
tp992
a(V148268103
p993
I10532
tp994
a(V116553891
p995
I2035
tp996
a(V151090823
p997
I849
tp998
a(V416311594
p999
I9280
tp1000
a(V54303167
p1001
I6716
tp1002
a(V2440446554
p1003
I1217
tp1004
a(V17026971
p1005
I14967
tp1006
a(V3034814919
p1007
I5401
tp1008
a(V61996422
p1009
I1259
tp1010
a(V2396930972
p1011
I18100
tp1012
a(V52746656
p1013
I1127
tp1014
a(V126640430
p1015
I12497
tp1016
a(V17991579
p1017
I22045
tp1018
a(V273984441
p1019
I12478
tp1020
a(V168715580
p1021
I8835
tp1022
a(V2788588083
p1023
I8155
tp1024
a(V14923738
p1025
I2791
tp1026
a(V891259472
p1027
I1686
tp1028
a(V96682182
p1029
I19917
tp1030
a(V40983010
p1031
I10981
tp1032
a(V16838276
p1033
I1530967
tp1034
a(V60328904
p1035
I22
tp1036
a(V1869471378
p1037
I11591
tp1038
a(V275483015
p1039
I5205
tp1040
a(V107087487
p1041
I31338
tp1042
a(V22813422
p1043
I11327
tp1044
a(V61501509
p1045
I120
tp1046
a(V312412680
p1047
I18545
tp1048
a(V1092564138
p1049
I1481
tp1050
a(V26775476
p1051
I10190
tp1052
a(V46227914
p1053
I4217
tp1054
a(V21689176
p1055
I5964
tp1056
a(V452151127
p1057
I21380
tp1058
a(V368348409
p1059
I1114
tp1060
a(V3022179496
p1061
I21
tp1062
a(V18962418
p1063
I11687
tp1064
a(V114782468
p1065
I108683
tp1066
a(V2607477037
p1067
I4747
tp1068
a(V2864841
p1069
I1992
tp1070
a(V394642779
p1071
I298490
tp1072
a(V2448524059
p1073
I5524
tp1074
a(V229397793
p1075
I1104
tp1076
a(V1534767079
p1077
I1822
tp1078
a(V33980532
p1079
I12165
tp1080
a(V3108351
p1081
I8558725
tp1082
a(V788333744
p1083
I30441
tp1084
a(V376541591
p1085
I8862
tp1086
a(V582868501
p1087
I3904
tp1088
a(V196296812
p1089
I90257
tp1090
a(V1378
p1091
I17480
tp1092
a(V253167239
p1093
I431336
tp1094
a(V711058706
p1095
I4569
tp1096
a(V529118397
p1097
I1045
tp1098
a(V35529562
p1099
I222
tp1100
a(V1056313532
p1101
I883
tp1102
a(V253893808
p1103
I60711
tp1104
a(V2704486915
p1105
I23145
tp1106
a(V2546484209
p1107
I409
tp1108
a(V575927490
p1109
I3103
tp1110
a(V70498392
p1111
I31328
tp1112
a(V15357143
p1113
I20671
tp1114
a(V19478383
p1115
I879481
tp1116
a(V139848857
p1117
I8079
tp1118
a(V629573379
p1119
I19041
tp1120
a(V1694722513
p1121
I748
tp1122
a(V2350639447
p1123
I4864
tp1124
a(V330827198
p1125
I19613
tp1126
a(V111539157
p1127
I5254
tp1128
a(V192170074
p1129
I16000
tp1130
a(V3150956503
p1131
I111
tp1132
a(V14585555
p1133
I660
tp1134
a(V487651091
p1135
I1633
tp1136
a(V591455277
p1137
I12826
tp1138
a(V22351347
p1139
I212
tp1140
a(V3369373533
p1141
I2709
tp1142
a(V3382363841
p1143
I2782
tp1144
a(V29159687
p1145
I12775
tp1146
a(V2400446299
p1147
I1385
tp1148
a(V3254642543
p1149
I2661
tp1150
a(V3063418949
p1151
I14204
tp1152
a(V2888753306
p1153
I11684
tp1154
a(V57849762
p1155
I14692
tp1156
a(V39604545
p1157
I10252
tp1158
a(V1945904293
p1159
I21641
tp1160
a(V270481972
p1161
I25349
tp1162
a(V56567090
p1163
I3891
tp1164
a(V141453630
p1165
I15405
tp1166
a(V2398532839
p1167
I371
tp1168
a(V1643123766
p1169
I17221
tp1170
a(V634735245
p1171
I6397
tp1172
a(V1289738107
p1173
I130265
tp1174
a(V45253155
p1175
I7441
tp1176
a(V1489471572
p1177
I2519
tp1178
a(V449439731
p1179
I4616
tp1180
a(V2239981081
p1181
I4809
tp1182
a(V87500545
p1183
I22926
tp1184
a(V84444981
p1185
I21737
tp1186
a(V1352595571
p1187
I5250
tp1188
a(V842641699
p1189
I34
tp1190
a(V1624638168
p1191
I653
tp1192
a(V132288724
p1193
I1918
tp1194
a(V1475988331
p1195
I16174
tp1196
a(V219526902
p1197
I7579
tp1198
a.