(lp0
(V634387197
p1
I265
tp2
a(V15971805
p3
I57340
tp4
a(V27212395
p5
I11160
tp6
a(V38053161
p7
I19342
tp8
a(V28571999
p9
I48420
tp10
a(V18378349
p11
I43953
tp12
a(V1699108975
p13
I2131
tp14
a(V17841130
p15
I5986
tp16
a(V255996385
p17
I5934
tp18
a(V175136265
p19
I67
tp20
a(V3078652343
p21
I338
tp22
a(V774599383
p23
I720
tp24
a(V738836558
p25
I282
tp26
a(V2444829856
p27
I43
tp28
a(V104257356
p29
I9920
tp30
a(V2249186018
p31
I1537
tp32
a(V180268871
p33
I122
tp34
a(V2472978032
p35
I128
tp36
a(V402489347
p37
I546
tp38
a(V741911588
p39
I61
tp40
a.