(lp0
(V22973017
p1
I35728
tp2
a(V29748372
p3
I54701
tp4
a(V2177224099
p5
I3431
tp6
a(V49514576
p7
I1113
tp8
a(V20327105
p9
I116509
tp10
a(V188829085
p11
I5097
tp12
a(V12794362
p13
I45382
tp14
a(V20106796
p15
I7134
tp16
a(V486840302
p17
I8691
tp18
a(V26250595
p19
I6189
tp20
a(V47678782
p21
I16771
tp22
a(V28164923
p23
I239495
tp24
a(V201400755
p25
I20701
tp26
a(V289556231
p27
I27670
tp28
a(V14115408
p29
I66902
tp30
a(V184881902
p31
I10779
tp32
a(V14276189
p33
I75324
tp34
a(V30043148
p35
I46941
tp36
a(V2272207286
p37
I6367
tp38
a(V15568127
p39
I599737
tp40
a(V14216123
p41
I917660
tp42
a(V25356871
p43
I1821
tp44
a(V20457806
p45
I124301
tp46
a(V24590532
p47
I6835
tp48
a(V15485461
p49
I48247
tp50
a(V61466645
p51
I1658
tp52
a(V26819104
p53
I26826
tp54
a(V68739089
p55
I51354
tp56
a(V32492934
p57
I22044
tp58
a(V28588306
p59
I1728
tp60
a(V55308734
p61
I10832
tp62
a(V229141520
p63
I6682
tp64
a(V37284991
p65
I21814
tp66
a(V1260880106
p67
I3442
tp68
a(V15281391
p69
I203944
tp70
a(V16359602
p71
I15038
tp72
a(V138404716
p73
I26867
tp74
a(V18949452
p75
I2131302
tp76
a(V1544701488
p77
I879
tp78
a(V35789155
p79
I29653
tp80
a(V26574283
p81
I146087
tp82
a(V372343193
p83
I11029
tp84
a(V18021517
p85
I8443
tp86
a(V917160595
p87
I1845
tp88
a(V19803365
p89
I100784
tp90
a(V2308979646
p91
I784
tp92
a(V16386284
p93
I9812
tp94
a(V20402945
p95
I2200447
tp96
a(V21232827
p97
I21248
tp98
a(V962744707
p99
I3485
tp100
a(V153148261
p101
I26042
tp102
a(V272125054
p103
I7916
tp104
a(V254136706
p105
I27780
tp106
a(V586734515
p107
I5186
tp108
a(V338330795
p109
I71232
tp110
a(V192583349
p111
I4806
tp112
a(V1023354336
p113
I13233
tp114
a(V34262243
p115
I10665
tp116
a(V25053299
p117
I1939936
tp118
a(V1922066138
p119
I335
tp120
a(V2148020647
p121
I398
tp122
a(V21312378
p123
I60841
tp124
a(V264370502
p125
I14566
tp126
a(V15085627
p127
I21331
tp128
a(V472600930
p129
I2749
tp130
a(V16184358
p131
I1156563
tp132
a(V18858395
p133
I165334
tp134
a(V4029531
p135
I12620
tp136
a(V114030159
p137
I950
tp138
a(V28807892
p139
I4438
tp140
a(V237591901
p141
I12682
tp142
a(V553658449
p143
I1945
tp144
a(V143651355
p145
I5505
tp146
a(V2253557707
p147
I2612
tp148
a(V35002876
p149
I347627
tp150
a(V278035623
p151
I1371
tp152
a(V19739279
p153
I35589
tp154
a(V22739318
p155
I10206
tp156
a(V24266406
p157
I26067
tp158
a(V2375680748
p159
I1281
tp160
a(V18294197
p161
I49326
tp162
a(V1390730917
p163
I1107
tp164
a(V2715646770
p165
I956
tp166
a(V14802885
p167
I57374
tp168
a(V11677482
p169
I525
tp170
a(V422293154
p171
I13899
tp172
a(V402876893
p173
I13977
tp174
a(V43901066
p175
I2322
tp176
a(V498166332
p177
I22730
tp178
a(V1007915173
p179
I256
tp180
a(V41516710
p181
I22591
tp182
a(V16726035
p183
I62384
tp184
a(V28372030
p185
I2996
tp186
a(V104952689
p187
I39643
tp188
a(V886996418
p189
I2389
tp190
a(V250362250
p191
I14719
tp192
a(V2283469135
p193
I810
tp194
a(V593869071
p195
I1311
tp196
a(V33576180
p197
I3023
tp198
a(V172514509
p199
I3882
tp200
a(V68537333
p201
I4278
tp202
a(V2177043126
p203
I670
tp204
a(V28954908
p205
I2486
tp206
a(V135293064
p207
I3600
tp208
a(V19546277
p209
I537955
tp210
a(V2371375765
p211
I2404
tp212
a(V41458395
p213
I8490
tp214
a(V57826817
p215
I388
tp216
a(V18189134
p217
I7788
tp218
a(V114130193
p219
I3179
tp220
a(V105196282
p221
I1244
tp222
a(V19046875
p223
I29379
tp224
a(V17456362
p225
I3531
tp226
a(V25163231
p227
I39598
tp228
a(V110463712
p229
I3223
tp230
a(V55840804
p231
I1849
tp232
a(V8841372
p233
I1358474
tp234
a(V2236826372
p235
I3358
tp236
a(V122225052
p237
I8388
tp238
a(V56250500
p239
I1726
tp240
a(V15904273
p241
I41248
tp242
a(V120325121
p243
I22321
tp244
a(V20088161
p245
I66272
tp246
a(V104185085
p247
I3035
tp248
a(V109350515
p249
I37724
tp250
a(V244248703
p251
I5151
tp252
a(V1080306914
p253
I3887
tp254
a(V22836731
p255
I73482
tp256
a(V3160263882
p257
I2654
tp258
a(V52222427
p259
I1275
tp260
a(V397230151
p261
I13677
tp262
a(V32022683
p263
I1271
tp264
a(V799122090
p265
I4869
tp266
a(V2253500720
p267
I5330
tp268
a(V318393064
p269
I2031
tp270
a(V203652149
p271
I35334
tp272
a(V961797541
p273
I10208
tp274
a(V166131787
p275
I9011
tp276
a(V722401092
p277
I1403
tp278
a(V874278126
p279
I3952
tp280
a(V93529573
p281
I12974
tp282
a(V2227396142
p283
I818
tp284
a(V455824771
p285
I37542
tp286
a(V52166809
p287
I37888
tp288
a(V175543125
p289
I652
tp290
a(V1606958940
p291
I376
tp292
a(V18413616
p293
I648
tp294
a(V1666651962
p295
I1612
tp296
a(V403576578
p297
I1377
tp298
a(V1308512629
p299
I7500
tp300
a(V68833497
p301
I1962
tp302
a(V31001654
p303
I166524
tp304
a(V15823891
p305
I21778
tp306
a(V216798259
p307
I7481
tp308
a(V44438256
p309
I60425
tp310
a(V1488051955
p311
I1284
tp312
a(V20653467
p313
I854
tp314
a(V102094857
p315
I45642
tp316
a(V76511168
p317
I17491
tp318
a(V2402003953
p319
I27929
tp320
a(V1251395215
p321
I562
tp322
a(V21793154
p323
I13003
tp324
a(V32450040
p325
I1584
tp326
a(V163566509
p327
I2513
tp328
a(V93723527
p329
I27777
tp330
a(V3090367147
p331
I244
tp332
a(V8524892
p333
I25590
tp334
a(V1068920202
p335
I2886
tp336
a(V521737922
p337
I6763
tp338
a(V701464597
p339
I6817
tp340
a(V23131068
p341
I3591
tp342
a(V1602854334
p343
I4362
tp344
a(V100925545
p345
I2705
tp346
a(V14210851
p347
I2485
tp348
a(V122511616
p349
I8473
tp350
a(V337594915
p351
I3040
tp352
a(V16259934
p353
I21067
tp354
a(V5442642
p355
I13205
tp356
a(V509679950
p357
I1286
tp358
a(V521936274
p359
I1305
tp360
a(V218430551
p361
I4753
tp362
a(V72442349
p363
I4730
tp364
a(V2353511190
p365
I1985
tp366
a(V37011010
p367
I1186
tp368
a(V20562637
p369
I1404468
tp370
a(V250758475
p371
I14182
tp372
a(V18981482
p373
I91981
tp374
a(V23434774
p375
I3184
tp376
a(V1961333743
p377
I5304
tp378
a(V19217352
p379
I458
tp380
a(V25488729
p381
I16433
tp382
a(V76132385
p383
I7095
tp384
a(V47247213
p385
I10922
tp386
a(V631396062
p387
I1128
tp388
a(V338521549
p389
I839
tp390
a(V2335651058
p391
I3528
tp392
a(V829442994
p393
I3776
tp394
a(V632341632
p395
I15286
tp396
a(V602321455
p397
I4527
tp398
a(V34671618
p399
I4041
tp400
a(V16732770
p401
I124395
tp402
a(V1299729710
p403
I896
tp404
a(V34837057
p405
I17165
tp406
a(V33286321
p407
I2706
tp408
a(V17433343
p409
I3297
tp410
a(V190092133
p411
I3731
tp412
a(V887742882
p413
I439
tp414
a(V18571616
p415
I47159
tp416
a(V15309537
p417
I1659
tp418
a(V266799789
p419
I4868
tp420
a(V163537857
p421
I7622
tp422
a(V17549691
p423
I34399
tp424
a(V18719020
p425
I23346
tp426
a(V80697114
p427
I4275
tp428
a(V1396025018
p429
I1454
tp430
a(V382301115
p431
I5165
tp432
a(V252215403
p433
I567
tp434
a(V230609065
p435
I6019
tp436
a(V528859777
p437
I805
tp438
a(V1228537610
p439
I4173
tp440
a(V383077253
p441
I1346
tp442
a(V29501977
p443
I6631
tp444
a(V271625014
p445
I366
tp446
a(V466333756
p447
I10641
tp448
a(V422797624
p449
I277
tp450
a(V39549428
p451
I10209
tp452
a(V2421030156
p453
I2191
tp454
a(V1544741402
p455
I854
tp456
a(V21269694
p457
I2660
tp458
a(V263812431
p459
I4520
tp460
a(V16615822
p461
I3434
tp462
a(V400066174
p463
I15079
tp464
a(V49637104
p465
I10315
tp466
a(V120209971
p467
I11495
tp468
a(V136842204
p469
I6720
tp470
a(V18560146
p471
I20392
tp472
a(V302349992
p473
I2307
tp474
a(V102576558
p475
I1278
tp476
a(V252370778
p477
I4899
tp478
a(V15246621
p479
I63571
tp480
a(V271211220
p481
I39916
tp482
a(V13159032
p483
I7501
tp484
a(V45878767
p485
I1329
tp486
a(V94609907
p487
I2567
tp488
a(V13171622
p489
I40051
tp490
a(V43111757
p491
I39557
tp492
a(V265045921
p493
I710
tp494
a(V622111302
p495
I1283
tp496
a(V258929520
p497
I1187
tp498
a(V1393603976
p499
I12296
tp500
a(V194119290
p501
I2638
tp502
a(V983655260
p503
I6111
tp504
a(V2392142848
p505
I1857
tp506
a(V1931179794
p507
I3562
tp508
a(V436947490
p509
I1402
tp510
a(V300923308
p511
I3230
tp512
a(V1544781733
p513
I1227
tp514
a(V17826999
p515
I61092
tp516
a(V16194705
p517
I1389
tp518
a(V1676916738
p519
I1186
tp520
a(V701099131
p521
I412
tp522
a(V1128655568
p523
I637
tp524
a(V1064700308
p525
I7430
tp526
a(V2286097290
p527
I8628
tp528
a(V106498703
p529
I100555
tp530
a(V18952948
p531
I20544
tp532
a(V16614442
p533
I9789
tp534
a(V36959561
p535
I5245
tp536
a(V105491141
p537
I788
tp538
a(V33923173
p539
I5211
tp540
a(V16437499
p541
I2162
tp542
a(V590523112
p543
I2345
tp544
a(V28858121
p545
I4535
tp546
a(V171563950
p547
I4502
tp548
a(V1315225639
p549
I1247
tp550
a(V2676762737
p551
I1714
tp552
a(V437390228
p553
I4177
tp554
a(V29881875
p555
I20462
tp556
a(V102527566
p557
I24419
tp558
a(V392678967
p559
I838
tp560
a(V3218209455
p561
I790
tp562
a(V24680689
p563
I3073
tp564
a(V475524030
p565
I36038
tp566
a(V93913891
p567
I5356
tp568
a(V23072299
p569
I4524
tp570
a(V375980238
p571
I11142
tp572
a(V1330055544
p573
I2293
tp574
a(V68441951
p575
I260
tp576
a(V2231913055
p577
I2002
tp578
a(V432650534
p579
I2264
tp580
a(V820031509
p581
I5903
tp582
a(V6172452
p583
I1571
tp584
a(V106504911
p585
I18843
tp586
a(V3096714913
p587
I291
tp588
a(V16827489
p589
I725242
tp590
a(V1959396044
p591
I603
tp592
a(V2180411400
p593
I489
tp594
a(V16079604
p595
I2146
tp596
a(V20611469
p597
I1498
tp598
a(V1113007268
p599
I274
tp600
a(V545618159
p601
I12364
tp602
a(V54664941
p603
I9631
tp604
a(V27922928
p605
I16092
tp606
a(V146930159
p607
I2731
tp608
a(V1700112116
p609
I1749
tp610
a(V81742255
p611
I1825
tp612
a(V314695175
p613
I1861
tp614
a(V14370402
p615
I10832
tp616
a(V1018083266
p617
I1922
tp618
a(V19717430
p619
I7702
tp620
a(V16598957
p621
I12921
tp622
a(V217612422
p623
I4513
tp624
a(V2573523368
p625
I489
tp626
a(V264153788
p627
I53552
tp628
a(V972704750
p629
I1301
tp630
a(V2732425088
p631
I748
tp632
a(V20704445
p633
I3399
tp634
a(V22523357
p635
I2601
tp636
a(V77846920
p637
I6675
tp638
a(V569542024
p639
I6384
tp640
a(V1330741110
p641
I1823
tp642
a(V2867531362
p643
I2051
tp644
a(V1314862352
p645
I162
tp646
a(V84964880
p647
I254
tp648
a(V18616722
p649
I9538
tp650
a(V35572357
p651
I16835
tp652
a(V525839377
p653
I3435
tp654
a(V176698373
p655
I7790
tp656
a(V112872946
p657
I15057
tp658
a(V1227708073
p659
I1372
tp660
a(V1952540521
p661
I289
tp662
a(V11308402
p663
I5752
tp664
a(V102275856
p665
I676
tp666
a(V2275337142
p667
I2582
tp668
a(V142742259
p669
I5250
tp670
a(V15143065
p671
I6155
tp672
a(V2206472570
p673
I868
tp674
a(V996335270
p675
I8272
tp676
a(V211951561
p677
I8016
tp678
a(V302545862
p679
I7302
tp680
a(V1429587566
p681
I1978
tp682
a(V20274912
p683
I23164
tp684
a(V903946567
p685
I1876
tp686
a(V14078468
p687
I12834
tp688
a(V43882881
p689
I2281
tp690
a(V1466505344
p691
I4297
tp692
a(V40136635
p693
I591
tp694
a(V201891203
p695
I15414
tp696
a(V318171818
p697
I906
tp698
a(V2361631088
p699
I1556
tp700
a(V271002958
p701
I584
tp702
a(V30359797
p703
I8032
tp704
a(V23374799
p705
I428
tp706
a(V3142866090
p707
I561
tp708
a(V2151247592
p709
I8485
tp710
a(V423785819
p711
I8337
tp712
a(V36597548
p713
I2814
tp714
a(V1473431
p715
I17782
tp716
a(V243795494
p717
I1380
tp718
a(V314005753
p719
I9955
tp720
a(V17780244
p721
I22187
tp722
a(V615965380
p723
I4887
tp724
a(V25827743
p725
I13420
tp726
a(V236621887
p727
I2649
tp728
a(V266106478
p729
I297
tp730
a(V277993952
p731
I156
tp732
a(V37148595
p733
I630
tp734
a(V113115734
p735
I461
tp736
a(V13129852
p737
I768
tp738
a(V42589787
p739
I25943
tp740
a(V35227172
p741
I1307
tp742
a(V2962145740
p743
I281
tp744
a(V1337585012
p745
I2544
tp746
a(V18034541
p747
I12378
tp748
a(V1281489805
p749
I664
tp750
a(V2290432441
p751
I767
tp752
a(V2248997731
p753
I110
tp754
a(V2800242683
p755
I302
tp756
a(V72907355
p757
I21503
tp758
a(V390450593
p759
I1998
tp760
a(V339754154
p761
I1991
tp762
a(V1554889094
p763
I1807
tp764
a(V28618520
p765
I2023
tp766
a(V1725368329
p767
I1791
tp768
a(V28248955
p769
I2138
tp770
a(V94172546
p771
I2863
tp772
a(V231401935
p773
I2071
tp774
a(V2273055984
p775
I1008
tp776
a(V245069853
p777
I2810
tp778
a(V17136742
p779
I1636
tp780
a(V2249884134
p781
I1505
tp782
a(V489658744
p783
I1255
tp784
a(V54713716
p785
I541
tp786
a(V44060322
p787
I46672
tp788
a(V28796454
p789
I1164
tp790
a(V60139630
p791
I462
tp792
a(V142351603
p793
I4315
tp794
a(V550663732
p795
I14360
tp796
a(V104712573
p797
I6393
tp798
a(V227070376
p799
I42829
tp800
a(V636545451
p801
I3008
tp802
a(V1399951764
p803
I2797
tp804
a(V1623700098
p805
I2079
tp806
a(V2353958539
p807
I6610
tp808
a(V872581886
p809
I3270
tp810
a(V2837841
p811
I51852
tp812
a(V27746125
p813
I3101
tp814
a(V2153418072
p815
I1291
tp816
a(V39801292
p817
I3182
tp818
a(V202915788
p819
I9298
tp820
a(V1087194962
p821
I4139
tp822
a(V49663664
p823
I43180
tp824
a(V398105054
p825
I13448
tp826
a(V455309376
p827
I37860
tp828
a(V1347071545
p829
I48782
tp830
a(V1413027896
p831
I15196
tp832
a(V17695167
p833
I3961
tp834
a(V143949701
p835
I58610
tp836
a(V19400611
p837
I66745
tp838
a(V403598464
p839
I18753
tp840
a(V1527716203
p841
I13198
tp842
a(V84365116
p843
I39651
tp844
a(V318764599
p845
I1153
tp846
a(V93687723
p847
I11133
tp848
a(V70987052
p849
I21864
tp850
a(V624413
p851
I2112809
tp852
a(V466185506
p853
I8135
tp854
a(V451466991
p855
I3535
tp856
a(V18433619
p857
I60541
tp858
a(V1546201075
p859
I2333
tp860
a(V15764136
p861
I411962
tp862
a(V40045763
p863
I7570
tp864
a(V19988458
p865
I85795
tp866
a(V22079148
p867
I11619
tp868
a(V1533387092
p869
I8883
tp870
a(V272108790
p871
I1919
tp872
a(V89225644
p873
I13977
tp874
a(V793984765
p875
I38921
tp876
a(V21328656
p877
I87047
tp878
a(V524512963
p879
I1013
tp880
a(V97334517
p881
I27463
tp882
a(V17746914
p883
I20705
tp884
a(V1647573157
p885
I11565
tp886
a(V192533447
p887
I5678
tp888
a(V898301664
p889
I15634
tp890
a(V468703129
p891
I6299
tp892
a(V19737262
p893
I5940
tp894
a(V317256470
p895
I7266
tp896
a(V37718217
p897
I25871
tp898
a(V37065910
p899
I7913
tp900
a(V246213562
p901
I1692
tp902
a(V16722610
p903
I16480
tp904
a(V252747758
p905
I1702
tp906
a(V20449296
p907
I77182
tp908
a(V14885549
p909
I2283889
tp910
a(V279585313
p911
I9297
tp912
a(V455366870
p913
I10209
tp914
a(V16841829
p915
I17304
tp916
a(V253168011
p917
I6430
tp918
a(V1544392183
p919
I862
tp920
a(V102819479
p921
I12509
tp922
a(V142353824
p923
I4497
tp924
a(V320276448
p925
I5873
tp926
a(V26765788
p927
I14129
tp928
a(V18052886
p929
I9986
tp930
a(V15110357
p931
I1486710
tp932
a(V17124991
p933
I15396
tp934
a(V14948120
p935
I1765
tp936
a(V2180688258
p937
I3738
tp938
a(V331677065
p939
I11594
tp940
a(V164400667
p941
I3351
tp942
a(V70755249
p943
I35383
tp944
a(V60705191
p945
I2416
tp946
a(V56413858
p947
I283237
tp948
a(V349249475
p949
I12379
tp950
a(V233704756
p951
I21944
tp952
a(V384717221
p953
I162712
tp954
a(V84402174
p955
I41510
tp956
a(V404422077
p957
I108464
tp958
a(V24410456
p959
I25516
tp960
a(V61342056
p961
I38769
tp962
a(V2788398967
p963
I1221
tp964
a(V19966431
p965
I5696
tp966
a(V102754598
p967
I23335
tp968
a(V14886375
p969
I489367
tp970
a(V22522178
p971
I123193
tp972
a(V40982362
p973
I20383
tp974
a(V7517052
p975
I249826
tp976
a(V17105436
p977
I8909
tp978
a(V20353621
p979
I3192
tp980
a(V326315947
p981
I23003
tp982
a(V690823
p983
I18290
tp984
a(V559118898
p985
I863
tp986
a(V47087332
p987
I5499
tp988
a(V906249536
p989
I960
tp990
a(V194137231
p991
I12500
tp992
a(V212531237
p993
I8433
tp994
a(V160625399
p995
I8621
tp996
a(V60113926
p997
I17897
tp998
a(V19565763
p999
I1400
tp1000
a(V26410257
p1001
I3342
tp1002
a(V365321928
p1003
I5444
tp1004
a(V705540042
p1005
I1149
tp1006
a(V456107944
p1007
I12043
tp1008
a(V1707420654
p1009
I2055
tp1010
a(V2842486028
p1011
I153
tp1012
a(V2258997775
p1013
I67
tp1014
a(V2538444569
p1015
I365
tp1016
a(V48839691
p1017
I846
tp1018
a(V186457332
p1019
I2613
tp1020
a(V428653913
p1021
I3944
tp1022
a(V136818409
p1023
I498
tp1024
a(V862785565
p1025
I3131
tp1026
a(V222164515
p1027
I9612
tp1028
a(V1296952741
p1029
I976
tp1030
a(V283802591
p1031
I258
tp1032
a(V142754319
p1033
I1867
tp1034
a(V14905769
p1035
I2210
tp1036
a(V41386160
p1037
I9667
tp1038
a(V13471032
p1039
I9889
tp1040
a(V13423622
p1041
I629
tp1042
a(V254280603
p1043
I7659
tp1044
a(V416285082
p1045
I65473
tp1046
a(V35250074
p1047
I316
tp1048
a(V730086612
p1049
I611
tp1050
a(V20455382
p1051
I403
tp1052
a(V14129793
p1053
I5655
tp1054
a(V1586109433
p1055
I681
tp1056
a(V2174427956
p1057
I169
tp1058
a(V581362095
p1059
I338
tp1060
a(V60694682
p1061
I909
tp1062
a(V17573691
p1063
I3324
tp1064
a(V2311328749
p1065
I3251
tp1066
a(V48597403
p1067
I2739
tp1068
a(V1546139108
p1069
I768
tp1070
a(V32362720
p1071
I1281
tp1072
a(V40099128
p1073
I11011
tp1074
a(V890063616
p1075
I174
tp1076
a(V89506705
p1077
I1305
tp1078
a(V17583317
p1079
I2494
tp1080
a(V34715151
p1081
I3559
tp1082
a(V116431218
p1083
I1869
tp1084
a(V62849747
p1085
I3873
tp1086
a(V198575579
p1087
I381
tp1088
a(V256197279
p1089
I327
tp1090
a(V1157373200
p1091
I3258
tp1092
a(V2249432185
p1093
I1094
tp1094
a(V243801041
p1095
I6404
tp1096
a(V2243136331
p1097
I231
tp1098
a(V55354528
p1099
I2458
tp1100
a(V255103050
p1101
I884
tp1102
a(V70778344
p1103
I16088
tp1104
a(V49519788
p1105
I321
tp1106
a(V42091991
p1107
I1135
tp1108
a(V495660523
p1109
I1225
tp1110
a(V1597968769
p1111
I332
tp1112
a(V2547764426
p1113
I118
tp1114
a(V750062719
p1115
I218
tp1116
a(V15731895
p1117
I4926
tp1118
a(V562406073
p1119
I2653
tp1120
a(V16314180
p1121
I7527
tp1122
a(V529704495
p1123
I2115
tp1124
a(V202411176
p1125
I2132
tp1126
a(V753990800
p1127
I173
tp1128
a(V267768064
p1129
I2362
tp1130
a(V418036639
p1131
I4197
tp1132
a(V2584594087
p1133
I134
tp1134
a(V178170937
p1135
I2916
tp1136
a(V2557515984
p1137
I503
tp1138
a(V22680719
p1139
I8983
tp1140
a(V414600500
p1141
I41827
tp1142
a(V821618390
p1143
I3261
tp1144
a(V2323978611
p1145
I896
tp1146
a(V275099779
p1147
I2383
tp1148
a(V2830318542
p1149
I565
tp1150
a(V19143910
p1151
I6684
tp1152
a(V403730941
p1153
I501
tp1154
a(V561590821
p1155
I190
tp1156
a(V522699291
p1157
I176
tp1158
a(V27019481
p1159
I398
tp1160
a(V1027173822
p1161
I986
tp1162
a(V2610193056
p1163
I656
tp1164
a(V7380362
p1165
I48675
tp1166
a(V52126417
p1167
I9436
tp1168
a(V141095746
p1169
I1025
tp1170
a(V14992263
p1171
I9168
tp1172
a(V985618700
p1173
I979
tp1174
a(V3484500562
p1175
I127
tp1176
a(V83598188
p1177
I3639
tp1178
a(V1263205698
p1179
I121
tp1180
a(V277593602
p1181
I197
tp1182
a(V185472995
p1183
I1289
tp1184
a(V30940468
p1185
I1004
tp1186
a(V229966745
p1187
I5315
tp1188
a(V23400557
p1189
I1383
tp1190
a(V36148700
p1191
I3472
tp1192
a(V2425232948
p1193
I172
tp1194
a(V18639734
p1195
I447129
tp1196
a(V112444373
p1197
I1448
tp1198
a(V205822782
p1199
I1793
tp1200
a(V374538632
p1201
I6931
tp1202
a(V14121270
p1203
I884
tp1204
a(V163897694
p1205
I3204
tp1206
a(V24357211
p1207
I1378
tp1208
a(V7836182
p1209
I13103
tp1210
a(V815339568
p1211
I35
tp1212
a(V64888916
p1213
I9151
tp1214
a(V16248719
p1215
I2396
tp1216
a(V131043626
p1217
I2411
tp1218
a(V405820375
p1219
I618
tp1220
a(V22219344
p1221
I778
tp1222
a(V22243120
p1223
I92
tp1224
a(V293327665
p1225
I3623
tp1226
a(V14717580
p1227
I2794
tp1228
a(V117157049
p1229
I1089
tp1230
a(V240428676
p1231
I271
tp1232
a(V15130891
p1233
I25121
tp1234
a(V79219027
p1235
I3114
tp1236
a(V1676942936
p1237
I57
tp1238
a(V109233519
p1239
I544
tp1240
a(V85413569
p1241
I1027
tp1242
a(V2244024828
p1243
I436
tp1244
a(V22814481
p1245
I5091
tp1246
a(V161400901
p1247
I2135
tp1248
a(V1451620352
p1249
I996
tp1250
a(V1630992348
p1251
I978
tp1252
a(V246444102
p1253
I12470
tp1254
a(V214577856
p1255
I1873
tp1256
a(V545273917
p1257
I329
tp1258
a(V1379301222
p1259
I1166
tp1260
a(V389157954
p1261
I2328
tp1262
a(V47887874
p1263
I1023
tp1264
a(V16595597
p1265
I2890
tp1266
a(V2196092280
p1267
I1893
tp1268
a(V120004341
p1269
I4780
tp1270
a(V1241635501
p1271
I1984
tp1272
a(V884306288
p1273
I228
tp1274
a(V1065854084
p1275
I755
tp1276
a(V1450167168
p1277
I3921
tp1278
a(V15736517
p1279
I1909
tp1280
a(V2429563184
p1281
I573
tp1282
a(V303800471
p1283
I1908
tp1284
a(V23898700
p1285
I1543
tp1286
a(V14133912
p1287
I16723
tp1288
a(V253648668
p1289
I5922
tp1290
a(V1805986292
p1291
I2839
tp1292
a(V23368614
p1293
I6152
tp1294
a(V1241647621
p1295
I102
tp1296
a(V2215937899
p1297
I2498
tp1298
a(V535913183
p1299
I2899
tp1300
a(V1615929840
p1301
I1123
tp1302
a(V44889746
p1303
I80
tp1304
a(V235312627
p1305
I2358
tp1306
a(V26899727
p1307
I3927
tp1308
a(V13735782
p1309
I10435
tp1310
a(V1372592071
p1311
I1045
tp1312
a(V58808528
p1313
I6279
tp1314
a(V24227424
p1315
I24952
tp1316
a(V214479702
p1317
I4935
tp1318
a(V326745108
p1319
I7003
tp1320
a(V28402887
p1321
I4421
tp1322
a(V1597925221
p1323
I1105
tp1324
a(V879711720
p1325
I611
tp1326
a(V556202795
p1327
I580
tp1328
a(V409194010
p1329
I4193
tp1330
a(V725988889
p1331
I543
tp1332
a(V232743364
p1333
I6724
tp1334
a(V117088484
p1335
I351
tp1336
a(V1447296895
p1337
I614
tp1338
a(V135232376
p1339
I362
tp1340
a(V577710476
p1341
I306
tp1342
a(V201753473
p1343
I3751
tp1344
a(V19785281
p1345
I28149
tp1346
a(V20800915
p1347
I10800
tp1348
a(V705746750
p1349
I1171
tp1350
a(V2214587864
p1351
I257
tp1352
a(V2890121678
p1353
I582
tp1354
a(V430841130
p1355
I15391
tp1356
a(V28366310
p1357
I44399
tp1358
a(V48742682
p1359
I606
tp1360
a(V17525227
p1361
I3123
tp1362
a(V2452122962
p1363
I382
tp1364
a(V15031792
p1365
I1308
tp1366
a(V1528208486
p1367
I655
tp1368
a(V1638493381
p1369
I904
tp1370
a(V21917683
p1371
I8134
tp1372
a(V29854129
p1373
I6210
tp1374
a(V2287469286
p1375
I1588
tp1376
a(V313525664
p1377
I1833
tp1378
a(V873399943
p1379
I3577
tp1380
a(V613833532
p1381
I982
tp1382
a(V559940893
p1383
I332
tp1384
a(V223589965
p1385
I4349
tp1386
a(V38014838
p1387
I1568
tp1388
a(V25708319
p1389
I2010
tp1390
a(V2370232028
p1391
I346
tp1392
a(V3152516481
p1393
I243
tp1394
a(V1490781439
p1395
I288
tp1396
a(V47409572
p1397
I1313
tp1398
a(V53215424
p1399
I15415
tp1400
a(V243331655
p1401
I5214
tp1402
a(V714051110
p1403
I17765
tp1404
a(V1480535438
p1405
I431
tp1406
a(V119475889
p1407
I602
tp1408
a(V14626496
p1409
I7697
tp1410
a(V380500399
p1411
I4476
tp1412
a(V423695486
p1413
I443
tp1414
a(V1419231625
p1415
I3041
tp1416
a(V264624088
p1417
I726
tp1418
a(V1672120591
p1419
I2185
tp1420
a(V3014690249
p1421
I311
tp1422
a(V65108820
p1423
I1382
tp1424
a(V46482051
p1425
I456
tp1426
a(V2255117054
p1427
I148
tp1428
a(V114353740
p1429
I203
tp1430
a(V201919494
p1431
I3036
tp1432
a(V21700255
p1433
I1366
tp1434
a(V19790872
p1435
I9393
tp1436
a(V2291862630
p1437
I48
tp1438
a(V760365205
p1439
I888
tp1440
a(V162861975
p1441
I328
tp1442
a(V14385046
p1443
I12365
tp1444
a(V5768632
p1445
I13942
tp1446
a(V247946309
p1447
I3580
tp1448
a(V88265498
p1449
I1376
tp1450
a(V370238655
p1451
I874
tp1452
a(V250785407
p1453
I1120
tp1454
a(V1923879607
p1455
I463
tp1456
a(V1469603575
p1457
I3681
tp1458
a(V207630487
p1459
I2025
tp1460
a(V38476367
p1461
I11383
tp1462
a(V102212196
p1463
I3312
tp1464
a(V1711733179
p1465
I248
tp1466
a(V770454349
p1467
I404
tp1468
a(V2424218279
p1469
I355
tp1470
a(V741147679
p1471
I226
tp1472
a(V24147760
p1473
I2809
tp1474
a(V19651092
p1475
I22083
tp1476
a(V1300573868
p1477
I584
tp1478
a(V2283967116
p1479
I121
tp1480
a(V30621120
p1481
I146
tp1482
a(V17523339
p1483
I1412
tp1484
a(V879275964
p1485
I5136
tp1486
a(V478804673
p1487
I410
tp1488
a(V20525971
p1489
I2278
tp1490
a(V315977587
p1491
I1202
tp1492
a(V2282138048
p1493
I824
tp1494
a(V23633168
p1495
I3261
tp1496
a(V1374059611
p1497
I824
tp1498
a(V381872892
p1499
I1845
tp1500
a(V344793159
p1501
I373
tp1502
a(V716635652
p1503
I608
tp1504
a(V721480968
p1505
I1446
tp1506
a(V3239723099
p1507
I401
tp1508
a(V79233326
p1509
I10293
tp1510
a(V102481836
p1511
I8807
tp1512
a(V135547578
p1513
I201
tp1514
a(V65469901
p1515
I338
tp1516
a(V82162291
p1517
I2070
tp1518
a(V1052381485
p1519
I1235
tp1520
a(V1665125166
p1521
I700
tp1522
a(V176255445
p1523
I598
tp1524
a(V1177065859
p1525
I1894
tp1526
a(V42703163
p1527
I3405
tp1528
a(V17936488
p1529
I2016
tp1530
a(V1001726569
p1531
I2116
tp1532
a(V2926058954
p1533
I249
tp1534
a(V2894294914
p1535
I320
tp1536
a(V31241479
p1537
I236
tp1538
a(V238411032
p1539
I3906
tp1540
a(V131849629
p1541
I3215
tp1542
a(V26583295
p1543
I5428
tp1544
a(V138234472
p1545
I974
tp1546
a(V552326867
p1547
I1677
tp1548
a(V2328320736
p1549
I286
tp1550
a(V168161721
p1551
I2719
tp1552
a(V433664446
p1553
I2385
tp1554
a(V15526523
p1555
I1113
tp1556
a(V14877483
p1557
I3981
tp1558
a(V514099301
p1559
I347
tp1560
a(V18968528
p1561
I4808
tp1562
a(V2698744388
p1563
I721
tp1564
a(V231123745
p1565
I2749
tp1566
a(V63235670
p1567
I1648
tp1568
a(V2679654407
p1569
I430
tp1570
a(V237859085
p1571
I1413
tp1572
a(V25739434
p1573
I3697
tp1574
a(V34581057
p1575
I300
tp1576
a(V2464284763
p1577
I1698
tp1578
a(V24609836
p1579
I1340
tp1580
a(V194346014
p1581
I4092
tp1582
a(V3437044841
p1583
I254
tp1584
a(V232503690
p1585
I1399
tp1586
a(V60350585
p1587
I1100
tp1588
a(V255319156
p1589
I904
tp1590
a(V146128105
p1591
I5960
tp1592
a(V37270553
p1593
I381
tp1594
a(V28140960
p1595
I1111
tp1596
a(V141935925
p1597
I519
tp1598
a(V625185937
p1599
I1045
tp1600
a(V725577499
p1601
I2098
tp1602
a(V67533177
p1603
I1154
tp1604
a(V798689370
p1605
I967
tp1606
a(V320350783
p1607
I375
tp1608
a(V14673628
p1609
I1867
tp1610
a(V120130287
p1611
I617
tp1612
a(V2301302630
p1613
I1490
tp1614
a(V416749415
p1615
I4038
tp1616
a(V818071
p1617
I21522
tp1618
a(V1426678082
p1619
I211
tp1620
a(V2257946510
p1621
I634
tp1622
a(V15079601
p1623
I23991
tp1624
a(V361259643
p1625
I433
tp1626
a(V2400601442
p1627
I298
tp1628
a(V588507814
p1629
I1972
tp1630
a(V19473937
p1631
I1330
tp1632
a(V1544270486
p1633
I1316
tp1634
a(V87591850
p1635
I1379
tp1636
a(V378208943
p1637
I4226
tp1638
a(V49605610
p1639
I4174
tp1640
a(V1950172806
p1641
I201
tp1642
a(V780517974
p1643
I1123
tp1644
a(V405212324
p1645
I377
tp1646
a(V728700470
p1647
I1315
tp1648
a(V2344531388
p1649
I1771
tp1650
a(V3434346681
p1651
I78
tp1652
a(V48431093
p1653
I6904
tp1654
a(V256210707
p1655
I408
tp1656
a(V95108387
p1657
I802
tp1658
a(V18436514
p1659
I278
tp1660
a(V441248955
p1661
I3823
tp1662
a(V1680622674
p1663
I1578
tp1664
a(V19552414
p1665
I694
tp1666
a(V467570473
p1667
I1084
tp1668
a(V52191442
p1669
I1399
tp1670
a(V1162102843
p1671
I610
tp1672
a(V23835730
p1673
I699
tp1674
a(V2319600132
p1675
I818
tp1676
a(V116229964
p1677
I3143
tp1678
a(V163648850
p1679
I6501
tp1680
a(V203841473
p1681
I815
tp1682
a(V51912109
p1683
I18037
tp1684
a(V15896829
p1685
I4163
tp1686
a(V100024370
p1687
I9255
tp1688
a(V2279548740
p1689
I891
tp1690
a(V1964973745
p1691
I195
tp1692
a(V2446101301
p1693
I482
tp1694
a(V230577906
p1695
I2652
tp1696
a(V527036582
p1697
I2327
tp1698
a(V789801356
p1699
I555
tp1700
a(V448461258
p1701
I2990
tp1702
a(V2209523323
p1703
I74
tp1704
a(V1603748720
p1705
I789
tp1706
a(V407529084
p1707
I376
tp1708
a(V572077039
p1709
I226
tp1710
a(V21778898
p1711
I4015
tp1712
a(V1490629538
p1713
I508
tp1714
a(V2338670249
p1715
I869
tp1716
a(V2232469315
p1717
I657
tp1718
a(V1344541868
p1719
I710
tp1720
a(V3301788987
p1721
I197
tp1722
a(V628888093
p1723
I158
tp1724
a(V15817191
p1725
I2361
tp1726
a(V726352207
p1727
I641
tp1728
a(V1685825136
p1729
I761
tp1730
a(V770550
p1731
I11572
tp1732
a(V139745694
p1733
I153
tp1734
a(V43685979
p1735
I708
tp1736
a(V166569708
p1737
I1233
tp1738
a(V132173493
p1739
I2246
tp1740
a(V237955221
p1741
I344
tp1742
a(V228426881
p1743
I1203
tp1744
a(V586407717
p1745
I2868
tp1746
a(V331246388
p1747
I175
tp1748
a(V833990635
p1749
I2315
tp1750
a(V21595683
p1751
I401
tp1752
a(V2295130488
p1753
I357
tp1754
a(V869323788
p1755
I1337
tp1756
a(V285087223
p1757
I144
tp1758
a(V16460151
p1759
I302
tp1760
a(V627498274
p1761
I1879
tp1762
a(V18660401
p1763
I1679
tp1764
a(V389060072
p1765
I3051
tp1766
a(V32516638
p1767
I274
tp1768
a(V32639483
p1769
I149
tp1770
a(V246585278
p1771
I3135
tp1772
a(V890031644
p1773
I1424
tp1774
a(V3355035849
p1775
I108
tp1776
a(V616110173
p1777
I393
tp1778
a(V127903829
p1779
I562
tp1780
a(V17945997
p1781
I722
tp1782
a(V15752608
p1783
I2304
tp1784
a(V37716108
p1785
I4951
tp1786
a(V2409554736
p1787
I1004
tp1788
a(V294176860
p1789
I14776
tp1790
a(V262763182
p1791
I6237
tp1792
a(V390864636
p1793
I88
tp1794
a(V32778531
p1795
I7792
tp1796
a(V562269677
p1797
I771
tp1798
a(V1189850912
p1799
I327
tp1800
a(V45539593
p1801
I8050
tp1802
a(V372497502
p1803
I191
tp1804
a(V287699802
p1805
I68
tp1806
a(V1105089212
p1807
I824
tp1808
a(V508993989
p1809
I3517
tp1810
a(V25254134
p1811
I3243
tp1812
a(V1137292440
p1813
I198
tp1814
a(V34255540
p1815
I2632
tp1816
a(V2208539346
p1817
I121
tp1818
a(V735588145
p1819
I1176
tp1820
a(V28719308
p1821
I811
tp1822
a(V3118084756
p1823
I1070
tp1824
a(V17893558
p1825
I6306
tp1826
a(V19079480
p1827
I11787
tp1828
a(V1976890536
p1829
I1718
tp1830
a(V193542064
p1831
I4088
tp1832
a(V2615738922
p1833
I408
tp1834
a(V3066075088
p1835
I1817
tp1836
a(V2911755130
p1837
I211
tp1838
a(V2360295679
p1839
I701
tp1840
a(V629350856
p1841
I1417
tp1842
a(V560809333
p1843
I281
tp1844
a(V35404934
p1845
I4611
tp1846
a(V175754840
p1847
I4699
tp1848
a(V40149174
p1849
I2305
tp1850
a(V16888420
p1851
I1672
tp1852
a(V1577535906
p1853
I79
tp1854
a(V29690957
p1855
I2101
tp1856
a(V260473647
p1857
I2192
tp1858
a(V192743745
p1859
I1141
tp1860
a(V1288711902
p1861
I236
tp1862
a(V60055468
p1863
I1666
tp1864
a(V2171399000
p1865
I130
tp1866
a(V966726223
p1867
I5166
tp1868
a(V18944615
p1869
I6415
tp1870
a(V15060990
p1871
I530
tp1872
a(V322650695
p1873
I395
tp1874
a(V729067698
p1875
I565
tp1876
a(V1132786314
p1877
I524
tp1878
a(V1416007532
p1879
I699
tp1880
a(V321360865
p1881
I253
tp1882
a(V27583688
p1883
I748
tp1884
a(V14079228
p1885
I1298
tp1886
a(V1965498433
p1887
I164
tp1888
a(V1647883590
p1889
I158
tp1890
a(V2701436990
p1891
I253
tp1892
a(V15689653
p1893
I3684
tp1894
a(V17751376
p1895
I831
tp1896
a(V3133951304
p1897
I338
tp1898
a(V250340751
p1899
I1911
tp1900
a(V161855898
p1901
I2337
tp1902
a(V2585824092
p1903
I115
tp1904
a(V125210248
p1905
I2280
tp1906
a(V63061242
p1907
I2705
tp1908
a(V718182886
p1909
I735
tp1910
a(V135970150
p1911
I253
tp1912
a(V274233761
p1913
I9919
tp1914
a(V15599095
p1915
I5003
tp1916
a(V600961508
p1917
I1194
tp1918
a(V36041084
p1919
I4165
tp1920
a(V1321306663
p1921
I523
tp1922
a(V41190670
p1923
I325
tp1924
a(V64783984
p1925
I2146
tp1926
a(V162443506
p1927
I450
tp1928
a(V28655703
p1929
I3617
tp1930
a(V2348871315
p1931
I120
tp1932
a(V1077398336
p1933
I1330
tp1934
a(V2235441500
p1935
I325
tp1936
a(V2483973571
p1937
I270
tp1938
a(V17586038
p1939
I2979
tp1940
a(V2200605978
p1941
I530
tp1942
a(V789970874
p1943
I97
tp1944
a(V1884013189
p1945
I818
tp1946
a(V285754636
p1947
I4771
tp1948
a(V67683728
p1949
I2368
tp1950
a(V23209299
p1951
I714
tp1952
a(V90885914
p1953
I699
tp1954
a(V329838136
p1955
I3128
tp1956
a(V966505482
p1957
I114
tp1958
a(V3261120091
p1959
I73
tp1960
a(V75002150
p1961
I197
tp1962
a(V18745322
p1963
I4723
tp1964
a(V322943268
p1965
I161
tp1966
a(V56667619
p1967
I206
tp1968
a(V159131559
p1969
I1785
tp1970
a(V1599033258
p1971
I677
tp1972
a(V2270526156
p1973
I78
tp1974
a(V1587217963
p1975
I1077
tp1976
a(V30256020
p1977
I289
tp1978
a(V21463400
p1979
I1208
tp1980
a(V231164809
p1981
I1819
tp1982
a(V3567608597
p1983
I36
tp1984
a(V550822443
p1985
I425
tp1986
a(V511465702
p1987
I37
tp1988
a(V1915328820
p1989
I1619
tp1990
a(V1085203015
p1991
I170
tp1992
a(V2764971561
p1993
I340
tp1994
a(V283102442
p1995
I1281
tp1996
a(V14933262
p1997
I5676
tp1998
a(V25662191
p1999
I1621
tp2000
a(V254207829
p2001
I6337
tp2002
a(V2731631322
p2003
I416
tp2004
a(V2300855994
p2005
I160
tp2006
a(V232603676
p2007
I38
tp2008
a(V1157462144
p2009
I168
tp2010
a(V111838410
p2011
I1358
tp2012
a(V3007704313
p2013
I308
tp2014
a(V983649158
p2015
I591
tp2016
a(V34939208
p2017
I14205
tp2018
a(V328633974
p2019
I260
tp2020
a(V191461872
p2021
I880
tp2022
a(V16295834
p2023
I10403
tp2024
a(V1708172444
p2025
I404
tp2026
a(V426011641
p2027
I401
tp2028
a(V244677736
p2029
I1254
tp2030
a(V474928154
p2031
I443
tp2032
a(V1242620792
p2033
I117
tp2034
a(V1329243757
p2035
I4101
tp2036
a(V754398600
p2037
I201
tp2038
a(V556557205
p2039
I134
tp2040
a(V78925997
p2041
I3182
tp2042
a(V334924180
p2043
I351
tp2044
a(V471532020
p2045
I755
tp2046
a(V2455521374
p2047
I134
tp2048
a(V383679240
p2049
I1267
tp2050
a(V78971620
p2051
I1844
tp2052
a(V97787095
p2053
I573
tp2054
a(V28319725
p2055
I2490
tp2056
a(V82142636
p2057
I10547
tp2058
a(V125773679
p2059
I5617
tp2060
a(V271138078
p2061
I5256
tp2062
a(V28353766
p2063
I7022
tp2064
a(V421331976
p2065
I483
tp2066
a(V1369919335
p2067
I401
tp2068
a(V1624404800
p2069
I208
tp2070
a(V1152105936
p2071
I4070
tp2072
a(V375780255
p2073
I1425
tp2074
a(V276334529
p2075
I705
tp2076
a(V411786151
p2077
I1262
tp2078
a(V7802422
p2079
I2719
tp2080
a(V1373568355
p2081
I3356
tp2082
a(V192728979
p2083
I191
tp2084
a(V811716426
p2085
I642
tp2086
a(V253062405
p2087
I1198
tp2088
a(V102475599
p2089
I2555
tp2090
a(V146496378
p2091
I785
tp2092
a(V42176691
p2093
I622
tp2094
a(V1166764590
p2095
I466
tp2096
a(V350031611
p2097
I450
tp2098
a(V257065074
p2099
I1038
tp2100
a(V2370683983
p2101
I125
tp2102
a(V1597660010
p2103
I485
tp2104
a(V1461649975
p2105
I3025
tp2106
a(V468530937
p2107
I761
tp2108
a(V26606762
p2109
I223
tp2110
a(V7993232
p2111
I1447
tp2112
a(V2786340877
p2113
I169
tp2114
a(V1704701516
p2115
I1419
tp2116
a(V302772765
p2117
I355
tp2118
a(V357527362
p2119
I521
tp2120
a(V1310763212
p2121
I1425
tp2122
a(V188779251
p2123
I229
tp2124
a(V31186367
p2125
I6639
tp2126
a(V43046065
p2127
I385
tp2128
a(V38448277
p2129
I1480
tp2130
a(V20011256
p2131
I974
tp2132
a(V1620686150
p2133
I656
tp2134
a(V323845126
p2135
I1650
tp2136
a(V990326472
p2137
I424
tp2138
a(V262652488
p2139
I5020
tp2140
a(V27990259
p2141
I7447
tp2142
a(V17625853
p2143
I4743
tp2144
a(V1944585612
p2145
I3362
tp2146
a(V225758803
p2147
I207
tp2148
a(V1358146357
p2149
I13918
tp2150
a(V1177050499
p2151
I938
tp2152
a(V790062926
p2153
I2037
tp2154
a(V1041064236
p2155
I569
tp2156
a(V1132377396
p2157
I322
tp2158
a(V17085087
p2159
I15193
tp2160
a(V254228322
p2161
I1090
tp2162
a(V2186813068
p2163
I1650
tp2164
a(V80735782
p2165
I3465
tp2166
a(V162060435
p2167
I2025
tp2168
a(V2155532220
p2169
I321
tp2170
a(V232870964
p2171
I2257
tp2172
a(V2903269091
p2173
I505
tp2174
a(V374047963
p2175
I734
tp2176
a(V44366481
p2177
I296
tp2178
a(V403855355
p2179
I6909
tp2180
a(V40300931
p2181
I3985
tp2182
a(V484380777
p2183
I718
tp2184
a(V16004376
p2185
I72174
tp2186
a(V2263467936
p2187
I1182
tp2188
a(V278639186
p2189
I256
tp2190
a(V44824361
p2191
I5948
tp2192
a(V298218590
p2193
I3884
tp2194
a(V36732307
p2195
I1603
tp2196
a(V68144782
p2197
I1605
tp2198
a(V54258763
p2199
I792
tp2200
a(V2368238768
p2201
I480
tp2202
a(V14057492
p2203
I10600
tp2204
a(V27162339
p2205
I2281
tp2206
a(V66884690
p2207
I849
tp2208
a(V291940756
p2209
I836
tp2210
a(V49060415
p2211
I1336
tp2212
a(V1329417120
p2213
I235
tp2214
a(V1685770231
p2215
I109
tp2216
a(V572064418
p2217
I435
tp2218
a(V60933222
p2219
I511
tp2220
a(V817389482
p2221
I533
tp2222
a(V516846902
p2223
I219
tp2224
a(V1205480192
p2225
I831
tp2226
a(V45917477
p2227
I41
tp2228
a(V1941253760
p2229
I578
tp2230
a(V393144539
p2231
I107
tp2232
a(V2277759669
p2233
I343
tp2234
a(V259725229
p2235
I95646
tp2236
a(V210855604
p2237
I2453
tp2238
a(V608517813
p2239
I293
tp2240
a(V1412207701
p2241
I61
tp2242
a(V430399569
p2243
I109
tp2244
a(V111984730
p2245
I2274
tp2246
a(V3346409171
p2247
I69
tp2248
a(V41239267
p2249
I694
tp2250
a(V2293377156
p2251
I849
tp2252
a(V1412062452
p2253
I129
tp2254
a(V120155681
p2255
I1244
tp2256
a(V26543277
p2257
I78
tp2258
a(V16080467
p2259
I3829
tp2260
a(V1005466790
p2261
I637
tp2262
a(V49755033
p2263
I1990
tp2264
a(V2254749702
p2265
I135
tp2266
a(V22972870
p2267
I4874
tp2268
a(V20345218
p2269
I5824
tp2270
a(V71680880
p2271
I620
tp2272
a(V2476610478
p2273
I997
tp2274
a(V224466293
p2275
I7383
tp2276
a(V66398680
p2277
I717
tp2278
a(V88055463
p2279
I148
tp2280
a(V21375592
p2281
I2575
tp2282
a(V562981866
p2283
I137
tp2284
a(V3248568151
p2285
I84
tp2286
a(V385138826
p2287
I2034
tp2288
a(V2343737305
p2289
I46
tp2290
a(V619451030
p2291
I1015
tp2292
a(V1162268034
p2293
I173
tp2294
a(V16789555
p2295
I1642
tp2296
a(V14191961
p2297
I8963
tp2298
a(V184238283
p2299
I161
tp2300
a(V402327015
p2301
I25
tp2302
a(V2900363608
p2303
I80
tp2304
a(V23221109
p2305
I6682
tp2306
a(V82143051
p2307
I2000
tp2308
a(V1016174119
p2309
I394
tp2310
a(V87906631
p2311
I546
tp2312
a(V2169414410
p2313
I1625
tp2314
a(V2359012975
p2315
I78
tp2316
a(V197869772
p2317
I17491
tp2318
a(V355727441
p2319
I802
tp2320
a(V323485909
p2321
I1565
tp2322
a(V1898479602
p2323
I77
tp2324
a(V1565751108
p2325
I1430
tp2326
a(V1636759074
p2327
I339
tp2328
a(V18215417
p2329
I260
tp2330
a(V255249826
p2331
I1399
tp2332
a(V38502647
p2333
I1365
tp2334
a(V1064015220
p2335
I2239
tp2336
a(V1320247970
p2337
I115
tp2338
a(V110273384
p2339
I3564
tp2340
a(V2290157628
p2341
I740
tp2342
a(V1965166141
p2343
I2204
tp2344
a(V19485664
p2345
I2303
tp2346
a(V1395076646
p2347
I479
tp2348
a(V126107014
p2349
I96
tp2350
a(V522429792
p2351
I188
tp2352
a(V18114882
p2353
I1214
tp2354
a(V251798248
p2355
I1046
tp2356
a(V588360535
p2357
I287
tp2358
a(V1011490554
p2359
I178
tp2360
a(V2875591925
p2361
I497
tp2362
a(V116362521
p2363
I338
tp2364
a(V2280064627
p2365
I1337
tp2366
a(V1451597324
p2367
I382
tp2368
a(V1900274090
p2369
I252
tp2370
a(V423985204
p2371
I237
tp2372
a(V575796665
p2373
I1765
tp2374
a(V220580561
p2375
I1296
tp2376
a(V1634354948
p2377
I3425
tp2378
a(V1898382380
p2379
I698
tp2380
a(V621053575
p2381
I314
tp2382
a(V89491245
p2383
I2689
tp2384
a(V2255955607
p2385
I613
tp2386
a(V3248519726
p2387
I80
tp2388
a(V1511145433
p2389
I69
tp2390
a(V439622829
p2391
I275
tp2392
a(V424481268
p2393
I963
tp2394
a(V557783735
p2395
I1442
tp2396
a(V14162740
p2397
I3655
tp2398
a(V404789840
p2399
I696
tp2400
a(V194283013
p2401
I2642
tp2402
a(V167058821
p2403
I1029
tp2404
a(V501848788
p2405
I818
tp2406
a(V27328911
p2407
I287
tp2408
a(V481695746
p2409
I168
tp2410
a(V1306200696
p2411
I153
tp2412
a(V1564252033
p2413
I732
tp2414
a(V205773369
p2415
I2725
tp2416
a(V221861667
p2417
I218
tp2418
a(V1457218807
p2419
I1149
tp2420
a(V1969740852
p2421
I1434
tp2422
a(V580540041
p2423
I549
tp2424
a(V85407995
p2425
I261
tp2426
a(V2153278538
p2427
I79
tp2428
a(V1138549746
p2429
I202
tp2430
a(V613698737
p2431
I1159
tp2432
a(V253697494
p2433
I450
tp2434
a(V89854883
p2435
I34
tp2436
a(V53978117
p2437
I3241
tp2438
a(V1923159170
p2439
I1486
tp2440
a(V62531524
p2441
I237
tp2442
a(V2383999142
p2443
I126
tp2444
a(V2846650551
p2445
I526
tp2446
a(V804995882
p2447
I701
tp2448
a(V27697529
p2449
I1584
tp2450
a(V2405169193
p2451
I71
tp2452
a(V175792847
p2453
I496
tp2454
a(V462950376
p2455
I1875
tp2456
a(V904039608
p2457
I1557
tp2458
a(V283822413
p2459
I480
tp2460
a(V15814096
p2461
I209
tp2462
a(V97352210
p2463
I113
tp2464
a(V2710561359
p2465
I680
tp2466
a(V729704964
p2467
I814
tp2468
a(V1697671027
p2469
I131
tp2470
a(V2153916871
p2471
I318
tp2472
a(V58930874
p2473
I184
tp2474
a(V318630104
p2475
I583
tp2476
a(V239676378
p2477
I582
tp2478
a(V281110353
p2479
I237
tp2480
a(V551255116
p2481
I95
tp2482
a(V1626184321
p2483
I224
tp2484
a(V164444607
p2485
I959
tp2486
a(V813793495
p2487
I687
tp2488
a(V34741114
p2489
I1143
tp2490
a(V56910769
p2491
I2204
tp2492
a(V77037048
p2493
I940
tp2494
a(V279020836
p2495
I300
tp2496
a(V540346883
p2497
I795
tp2498
a(V27185428
p2499
I315
tp2500
a(V489022370
p2501
I1331
tp2502
a(V2470063626
p2503
I79
tp2504
a(V29304194
p2505
I240
tp2506
a(V352443434
p2507
I2257
tp2508
a(V2214818162
p2509
I1114
tp2510
a(V179932277
p2511
I1489
tp2512
a(V2815300117
p2513
I28
tp2514
a(V26788389
p2515
I580
tp2516
a(V473463275
p2517
I663
tp2518
a(V3249100292
p2519
I83
tp2520
a(V310418698
p2521
I669
tp2522
a(V216421322
p2523
I117
tp2524
a(V2293885094
p2525
I484
tp2526
a(V1476010452
p2527
I645
tp2528
a(V2328335906
p2529
I531
tp2530
a(V54991448
p2531
I321
tp2532
a(V33656811
p2533
I344
tp2534
a(V60150406
p2535
I2031
tp2536
a(V732429464
p2537
I1732
tp2538
a(V19634639
p2539
I319
tp2540
a(V253418713
p2541
I191
tp2542
a(V284036571
p2543
I200
tp2544
a(V89538046
p2545
I493
tp2546
a(V17221422
p2547
I5423
tp2548
a(V14420570
p2549
I879
tp2550
a(V3035804476
p2551
I1602
tp2552
a(V185673983
p2553
I7526
tp2554
a(V2749415246
p2555
I278
tp2556
a(V867148020
p2557
I64
tp2558
a(V213636132
p2559
I721
tp2560
a(V37579771
p2561
I1205
tp2562
a(V197485346
p2563
I1908
tp2564
a(V19464543
p2565
I761
tp2566
a(V14051297
p2567
I2855
tp2568
a(V21110732
p2569
I3433
tp2570
a(V1136681167
p2571
I196
tp2572
a(V1399286868
p2573
I79
tp2574
a(V809050464
p2575
I89
tp2576
a(V2456858539
p2577
I219
tp2578
a(V272499767
p2579
I93
tp2580
a(V1888644360
p2581
I745
tp2582
a(V285738285
p2583
I5497
tp2584
a(V744650100
p2585
I1836
tp2586
a(V546195796
p2587
I349
tp2588
a(V63269421
p2589
I702
tp2590
a(V102057172
p2591
I332
tp2592
a(V1009613448
p2593
I524
tp2594
a(V35411199
p2595
I1837
tp2596
a(V14714176
p2597
I692
tp2598
a(V548791763
p2599
I347
tp2600
a(V36511815
p2601
I396
tp2602
a(V993282182
p2603
I527
tp2604
a(V314247342
p2605
I744
tp2606
a(V627580581
p2607
I560
tp2608
a(V186769278
p2609
I299
tp2610
a(V36393084
p2611
I867
tp2612
a(V35292768
p2613
I1486
tp2614
a(V2699087383
p2615
I468
tp2616
a(V528770977
p2617
I1843
tp2618
a(V27245687
p2619
I596
tp2620
a(V35077430
p2621
I187
tp2622
a(V226537603
p2623
I728
tp2624
a(V382670175
p2625
I241
tp2626
a(V2316426331
p2627
I519
tp2628
a(V84989659
p2629
I812
tp2630
a(V17669982
p2631
I1330
tp2632
a(V1449774690
p2633
I776
tp2634
a(V105107218
p2635
I5913
tp2636
a(V1944771998
p2637
I464
tp2638
a(V2356794445
p2639
I291
tp2640
a(V1357856636
p2641
I950
tp2642
a(V123119378
p2643
I257
tp2644
a(V210862918
p2645
I3461
tp2646
a(V245181129
p2647
I1049
tp2648
a(V467594742
p2649
I182
tp2650
a(V2422703600
p2651
I507
tp2652
a(V36549480
p2653
I735
tp2654
a(V65208304
p2655
I1004
tp2656
a(V2874471874
p2657
I54
tp2658
a(V334453236
p2659
I170
tp2660
a(V101612719
p2661
I331
tp2662
a(V10381282
p2663
I1555
tp2664
a(V50361069
p2665
I1947
tp2666
a(V3249150511
p2667
I130
tp2668
a(V613515240
p2669
I3812
tp2670
a(V588775819
p2671
I1312
tp2672
a(V94653842
p2673
I360
tp2674
a(V155197848
p2675
I156
tp2676
a(V115205601
p2677
I90
tp2678
a(V245420776
p2679
I46
tp2680
a(V890146412
p2681
I1326
tp2682
a(V1040640698
p2683
I608
tp2684
a(V74408465
p2685
I829
tp2686
a(V2329473574
p2687
I95
tp2688
a(V21329777
p2689
I2214
tp2690
a(V340037225
p2691
I929
tp2692
a(V260067255
p2693
I271
tp2694
a(V35359528
p2695
I632
tp2696
a(V707947641
p2697
I226
tp2698
a(V1545630956
p2699
I436
tp2700
a(V1161725924
p2701
I276
tp2702
a(V300709127
p2703
I922
tp2704
a(V2278259810
p2705
I1437
tp2706
a(V579221734
p2707
I56
tp2708
a(V315432866
p2709
I227
tp2710
a(V266227773
p2711
I171
tp2712
a(V718293108
p2713
I446
tp2714
a(V110584500
p2715
I172
tp2716
a(V21924974
p2717
I2848
tp2718
a(V19992655
p2719
I2501
tp2720
a(V51932290
p2721
I665
tp2722
a(V1077530796
p2723
I327
tp2724
a(V51575260
p2725
I602
tp2726
a(V2394624246
p2727
I44555
tp2728
a(V274622560
p2729
I206
tp2730
a(V454243874
p2731
I114
tp2732
a(V104847926
p2733
I2362
tp2734
a(V377773501
p2735
I745
tp2736
a(V3065867565
p2737
I480
tp2738
a(V563084750
p2739
I1055
tp2740
a(V1281714487
p2741
I251
tp2742
a(V110539278
p2743
I3611
tp2744
a(V185669556
p2745
I533
tp2746
a(V43659642
p2747
I498
tp2748
a(V1053227130
p2749
I919
tp2750
a(V28263739
p2751
I1689
tp2752
a(V86463400
p2753
I614
tp2754
a(V258612274
p2755
I638
tp2756
a(V72892215
p2757
I681
tp2758
a(V230678710
p2759
I39
tp2760
a(V2563956080
p2761
I144
tp2762
a(V16397306
p2763
I12705
tp2764
a(V2433296083
p2765
I209
tp2766
a(V245721011
p2767
I700
tp2768
a(V1884601171
p2769
I279
tp2770
a(V2400337061
p2771
I79
tp2772
a(V322090544
p2773
I354
tp2774
a(V2298666626
p2775
I324
tp2776
a(V2491897104
p2777
I335
tp2778
a(V3209498248
p2779
I51
tp2780
a(V19103794
p2781
I212
tp2782
a(V100085442
p2783
I614
tp2784
a(V328206816
p2785
I2679
tp2786
a(V606615769
p2787
I1050
tp2788
a(V392739061
p2789
I7935
tp2790
a(V124258437
p2791
I728
tp2792
a(V2426605831
p2793
I89
tp2794
a(V2655415370
p2795
I197
tp2796
a(V151603912
p2797
I2248
tp2798
a(V186136458
p2799
I4824
tp2800
a(V737311736
p2801
I788
tp2802
a(V19991183
p2803
I281
tp2804
a(V55560080
p2805
I442
tp2806
a(V178939490
p2807
I918
tp2808
a(V2574112584
p2809
I219
tp2810
a(V3374171794
p2811
I25
tp2812
a(V2270644075
p2813
I586
tp2814
a(V27351818
p2815
I189
tp2816
a(V196900797
p2817
I224
tp2818
a(V106400166
p2819
I449
tp2820
a(V947913702
p2821
I1750
tp2822
a(V2479655924
p2823
I43
tp2824
a(V1409089592
p2825
I63
tp2826
a(V442122539
p2827
I180
tp2828
a(V287441095
p2829
I784
tp2830
a(V72928001
p2831
I16728
tp2832
a(V1267775677
p2833
I1096
tp2834
a(V2225935261
p2835
I32
tp2836
a(V2891417613
p2837
I517
tp2838
a(V2248737696
p2839
I87
tp2840
a(V390812646
p2841
I1545
tp2842
a(V15852241
p2843
I89
tp2844
a(V20597922
p2845
I208
tp2846
a(V243645538
p2847
I77
tp2848
a(V149248764
p2849
I824
tp2850
a(V97382065
p2851
I1194
tp2852
a(V58363
p2853
I1504
tp2854
a(V3390499978
p2855
I248
tp2856
a(V414909904
p2857
I903
tp2858
a(V55627282
p2859
I1786
tp2860
a(V209907837
p2861
I2678
tp2862
a(V2263437272
p2863
I1141
tp2864
a(V3129807446
p2865
I206
tp2866
a(V1328696240
p2867
I192
tp2868
a(V1518193100
p2869
I182
tp2870
a(V770904320
p2871
I2354
tp2872
a(V294053762
p2873
I1533
tp2874
a(V1607155250
p2875
I1685
tp2876
a(V1024482170
p2877
I97
tp2878
a(V171164646
p2879
I230
tp2880
a(V815358834
p2881
I29
tp2882
a(V371381997
p2883
I480
tp2884
a(V2284341752
p2885
I1968
tp2886
a(V790309974
p2887
I4667
tp2888
a(V1603883088
p2889
I55
tp2890
a(V2988160240
p2891
I30
tp2892
a(V206948023
p2893
I68
tp2894
a(V3236730725
p2895
I130
tp2896
a(V364351796
p2897
I598
tp2898
a(V9681052
p2899
I910
tp2900
a(V1277178181
p2901
I1922
tp2902
a(V61532027
p2903
I1811
tp2904
a(V3248784494
p2905
I61
tp2906
a(V1519167781
p2907
I117
tp2908
a(V960727753
p2909
I1008
tp2910
a(V263258233
p2911
I51
tp2912
a(V605490451
p2913
I1107
tp2914
a(V45109264
p2915
I312
tp2916
a(V1900582555
p2917
I88
tp2918
a(V147398836
p2919
I70
tp2920
a(V305221233
p2921
I1436
tp2922
a(V23656286
p2923
I739
tp2924
a(V1550058426
p2925
I72
tp2926
a(V1226040738
p2927
I148
tp2928
a(V233603015
p2929
I871
tp2930
a(V762492626
p2931
I180
tp2932
a(V2276497765
p2933
I103
tp2934
a(V223329689
p2935
I533
tp2936
a(V932652001
p2937
I232
tp2938
a(V436707351
p2939
I567
tp2940
a(V2314106731
p2941
I63
tp2942
a(V466176731
p2943
I105
tp2944
a(V493374123
p2945
I526
tp2946
a(V402366681
p2947
I57
tp2948
a(V43347190
p2949
I477
tp2950
a(V1633729740
p2951
I193
tp2952
a(V463861175
p2953
I734
tp2954
a(V304202454
p2955
I301
tp2956
a(V480763269
p2957
I3046
tp2958
a(V2641133563
p2959
I39
tp2960
a(V43555217
p2961
I204
tp2962
a(V166396386
p2963
I2561
tp2964
a(V1415454499
p2965
I207
tp2966
a(V900620684
p2967
I197
tp2968
a(V458542358
p2969
I135
tp2970
a(V15785470
p2971
I476
tp2972
a(V2914277965
p2973
I415
tp2974
a(V26673145
p2975
I166
tp2976
a(V201929649
p2977
I310
tp2978
a(V38204207
p2979
I1567
tp2980
a(V72305470
p2981
I361
tp2982
a(V393125588
p2983
I253
tp2984
a(V21045893
p2985
I12600
tp2986
a(V14123701
p2987
I4641
tp2988
a(V206338797
p2989
I161
tp2990
a(V16667666
p2991
I2470
tp2992
a(V762326510
p2993
I36
tp2994
a(V478050993
p2995
I627
tp2996
a(V1599977917
p2997
I1067
tp2998
a(V212597510
p2999
I818
tp3000
a(V63163176
p3001
I1129
tp3002
a(V102806514
p3003
I861
tp3004
a(V76921999
p3005
I1899
tp3006
a(V16033537
p3007
I417
tp3008
a(V2570233256
p3009
I288
tp3010
a(V476050187
p3011
I120
tp3012
a(V2263452746
p3013
I1176
tp3014
a(V133910588
p3015
I2161
tp3016
a(V2240400700
p3017
I107
tp3018
a(V57643530
p3019
I149
tp3020
a(V539615809
p3021
I536
tp3022
a(V77272795
p3023
I711
tp3024
a(V326629646
p3025
I319
tp3026
a(V1389493454
p3027
I972
tp3028
a(V179225673
p3029
I835
tp3030
a(V67725235
p3031
I787
tp3032
a(V2378294428
p3033
I105
tp3034
a(V42457698
p3035
I1870
tp3036
a(V1262258454
p3037
I177
tp3038
a(V147902687
p3039
I2190
tp3040
a(V865866092
p3041
I56
tp3042
a(V602355833
p3043
I987
tp3044
a(V43718300
p3045
I2705
tp3046
a(V373457750
p3047
I9234
tp3048
a(V254232727
p3049
I11116
tp3050
a(V44695601
p3051
I1679
tp3052
a(V463919314
p3053
I331
tp3054
a(V2814690212
p3055
I115
tp3056
a(V18899842
p3057
I1033
tp3058
a(V213582251
p3059
I74
tp3060
a(V1112225545
p3061
I1033
tp3062
a(V18572453
p3063
I115
tp3064
a(V736299464
p3065
I546
tp3066
a(V51963389
p3067
I9212
tp3068
a(V281369833
p3069
I228
tp3070
a(V256191160
p3071
I469
tp3072
a(V23665498
p3073
I227
tp3074
a(V17249855
p3075
I4367
tp3076
a(V2285623465
p3077
I182
tp3078
a(V356328883
p3079
I171
tp3080
a(V24032908
p3081
I1446
tp3082
a(V110147594
p3083
I201
tp3084
a(V21233042
p3085
I131
tp3086
a(V2439000217
p3087
I936
tp3088
a(V1512267163
p3089
I1455
tp3090
a(V213697868
p3091
I703
tp3092
a(V238668583
p3093
I448
tp3094
a(V94385515
p3095
I45
tp3096
a(V617617177
p3097
I63
tp3098
a(V14972202
p3099
I7019
tp3100
a(V363429010
p3101
I788
tp3102
a(V818081647
p3103
I2800
tp3104
a(V58295042
p3105
I2116
tp3106
a(V1152624037
p3107
I275
tp3108
a(V2390928972
p3109
I448
tp3110
a(V450067470
p3111
I227
tp3112
a(V533466606
p3113
I52
tp3114
a(V349723344
p3115
I577
tp3116
a(V414904961
p3117
I963
tp3118
a(V289311242
p3119
I2160
tp3120
a(V870818204
p3121
I300
tp3122
a(V361196291
p3123
I111
tp3124
a(V2494896473
p3125
I1442
tp3126
a(V14624231
p3127
I148
tp3128
a(V112537325
p3129
I715
tp3130
a(V402353316
p3131
I1219
tp3132
a(V95334996
p3133
I122
tp3134
a(V1490980105
p3135
I1196
tp3136
a(V517678843
p3137
I261
tp3138
a(V2914186927
p3139
I80
tp3140
a(V17790265
p3141
I21247
tp3142
a(V22140382
p3143
I378
tp3144
a(V2294484187
p3145
I33
tp3146
a(V587701649
p3147
I274
tp3148
a(V2331387967
p3149
I294
tp3150
a(V20799724
p3151
I934
tp3152
a(V389827330
p3153
I79
tp3154
a(V215851158
p3155
I258
tp3156
a(V361128999
p3157
I824
tp3158
a(V98439400
p3159
I3002
tp3160
a(V32700250
p3161
I511
tp3162
a(V41753918
p3163
I914
tp3164
a(V372460791
p3165
I5487
tp3166
a(V131883678
p3167
I148
tp3168
a(V133205990
p3169
I243
tp3170
a(V56585069
p3171
I419
tp3172
a(V2303157007
p3173
I1291
tp3174
a(V14534018
p3175
I2263
tp3176
a(V245415373
p3177
I786
tp3178
a(V795408560
p3179
I1255
tp3180
a(V1959980964
p3181
I156
tp3182
a(V42995044
p3183
I462
tp3184
a(V519930044
p3185
I259
tp3186
a(V258079573
p3187
I628
tp3188
a(V467790249
p3189
I1270
tp3190
a(V833990485
p3191
I723
tp3192
a(V447289978
p3193
I491
tp3194
a(V733533786
p3195
I960
tp3196
a(V33292567
p3197
I336
tp3198
a(V375924569
p3199
I16
tp3200
a(V3168141
p3201
I217
tp3202
a(V593813785
p3203
I3352
tp3204
a(V222739462
p3205
I1004
tp3206
a(V18171008
p3207
I300
tp3208
a(V150094848
p3209
I1744
tp3210
a(V3010817206
p3211
I79
tp3212
a(V424146020
p3213
I66
tp3214
a(V73800370
p3215
I79
tp3216
a(V2581019786
p3217
I1032
tp3218
a(V5848722
p3219
I540
tp3220
a(V122186657
p3221
I303
tp3222
a(V64341848
p3223
I1189
tp3224
a(V115059975
p3225
I138
tp3226
a(V233772709
p3227
I278
tp3228
a(V345524677
p3229
I1207
tp3230
a(V17913
p3231
I1499
tp3232
a(V1930762644
p3233
I13
tp3234
a(V618228289
p3235
I559
tp3236
a(V1693981129
p3237
I42
tp3238
a(V1053484388
p3239
I67
tp3240
a(V100650665
p3241
I478
tp3242
a(V1183310281
p3243
I197
tp3244
a(V105977732
p3245
I68
tp3246
a(V347464978
p3247
I888
tp3248
a(V266765136
p3249
I1024
tp3250
a(V16827174
p3251
I5580
tp3252
a(V227048928
p3253
I58
tp3254
a(V2432456940
p3255
I160
tp3256
a(V848311970
p3257
I428
tp3258
a(V2381293746
p3259
I256
tp3260
a(V316261001
p3261
I39
tp3262
a(V735643934
p3263
I209
tp3264
a(V2439609638
p3265
I129
tp3266
a(V2872494423
p3267
I177
tp3268
a(V264306244
p3269
I250
tp3270
a(V346072206
p3271
I278
tp3272
a(V207141071
p3273
I4495
tp3274
a(V225693975
p3275
I444
tp3276
a(V2620633729
p3277
I94
tp3278
a(V1187313746
p3279
I293
tp3280
a(V427877977
p3281
I2418
tp3282
a(V24103137
p3283
I2761
tp3284
a(V241453438
p3285
I488
tp3286
a(V843247182
p3287
I92
tp3288
a(V1647794389
p3289
I186
tp3290
a(V1307452536
p3291
I66
tp3292
a(V37982404
p3293
I2468
tp3294
a(V43423144
p3295
I217
tp3296
a(V318666070
p3297
I776
tp3298
a(V469343611
p3299
I106
tp3300
a(V2234758370
p3301
I620
tp3302
a(V495524785
p3303
I94
tp3304
a(V900577399
p3305
I126
tp3306
a(V112317039
p3307
I1157
tp3308
a(V546213528
p3309
I63
tp3310
a(V111585151
p3311
I132
tp3312
a(V15007519
p3313
I698
tp3314
a(V353112583
p3315
I30
tp3316
a(V111403130
p3317
I851
tp3318
a(V328759996
p3319
I44
tp3320
a(V384672360
p3321
I392
tp3322
a(V19738127
p3323
I212
tp3324
a(V615466059
p3325
I269
tp3326
a(V235082515
p3327
I4473
tp3328
a(V1048926025
p3329
I156
tp3330
a(V1387533103
p3331
I299
tp3332
a(V14629171
p3333
I385
tp3334
a(V1310746040
p3335
I574
tp3336
a(V1733577882
p3337
I239
tp3338
a(V937248985
p3339
I236
tp3340
a(V202201906
p3341
I215
tp3342
a(V1136859602
p3343
I93
tp3344
a(V123136593
p3345
I1178
tp3346
a(V267621819
p3347
I45
tp3348
a(V121370906
p3349
I947
tp3350
a(V1976045850
p3351
I16
tp3352
a(V1636179504
p3353
I2
tp3354
a(V164784898
p3355
I15
tp3356
a(V403701277
p3357
I92
tp3358
a(V929083760
p3359
I145
tp3360
a(V188539748
p3361
I73
tp3362
a(V14633485
p3363
I1032
tp3364
a(V239988206
p3365
I131
tp3366
a(V463177571
p3367
I172
tp3368
a(V2908494810
p3369
I186
tp3370
a(V217060161
p3371
I581
tp3372
a(V50263268
p3373
I79
tp3374
a(V58884886
p3375
I237
tp3376
a(V981633553
p3377
I46
tp3378
a(V2300464068
p3379
I95
tp3380
a(V3288617649
p3381
I617
tp3382
a(V37238868
p3383
I3316
tp3384
a(V2396922733
p3385
I309
tp3386
a(V222625575
p3387
I2978
tp3388
a(V1959888277
p3389
I196
tp3390
a(V314061974
p3391
I1177
tp3392
a(V2864127489
p3393
I37
tp3394
a(V299413616
p3395
I2325
tp3396
a(V2792041422
p3397
I738
tp3398
a(V33046660
p3399
I154
tp3400
a(V15823893
p3401
I4843
tp3402
a(V31578769
p3403
I184
tp3404
a(V328741551
p3405
I2068
tp3406
a(V1703149020
p3407
I124
tp3408
a(V2858737520
p3409
I417
tp3410
a(V146716774
p3411
I2186
tp3412
a(V1439067241
p3413
I1273
tp3414
a(V34917936
p3415
I111
tp3416
a(V28175948
p3417
I644
tp3418
a(V1373402480
p3419
I1395
tp3420
a(V38197397
p3421
I2270
tp3422
a(V179928335
p3423
I642
tp3424
a(V2189012184
p3425
I100
tp3426
a(V137652630
p3427
I1220
tp3428
a(V386808013
p3429
I329
tp3430
a(V1127626405
p3431
I975
tp3432
a(V1967984485
p3433
I54
tp3434
a(V2238814035
p3435
I236
tp3436
a(V1281072037
p3437
I569
tp3438
a(V2198657929
p3439
I19
tp3440
a(V95498224
p3441
I143
tp3442
a(V2370604700
p3443
I159
tp3444
a(V56398552
p3445
I1083
tp3446
a(V182504418
p3447
I172
tp3448
a(V361601243
p3449
I366
tp3450
a(V242983763
p3451
I170
tp3452
a(V199930831
p3453
I152
tp3454
a(V812721392
p3455
I551
tp3456
a(V2305466028
p3457
I18
tp3458
a(V63488326
p3459
I150
tp3460
a(V15100767
p3461
I918
tp3462
a(V2934024822
p3463
I236
tp3464
a(V24553690
p3465
I25
tp3466
a(V2990670514
p3467
I120
tp3468
a(V246437510
p3469
I107
tp3470
a(V85092004
p3471
I365
tp3472
a(V342577543
p3473
I2725
tp3474
a(V64109894
p3475
I2016
tp3476
a(V76554388
p3477
I69
tp3478
a(V257500875
p3479
I642
tp3480
a(V1369372770
p3481
I562
tp3482
a(V1068770988
p3483
I318
tp3484
a(V49053838
p3485
I106
tp3486
a(V468806497
p3487
I138
tp3488
a(V177783118
p3489
I243
tp3490
a(V32548051
p3491
I51
tp3492
a(V288377691
p3493
I647
tp3494
a(V27525796
p3495
I330
tp3496
a(V756411806
p3497
I93
tp3498
a(V757372303
p3499
I200
tp3500
a(V790546093
p3501
I2638
tp3502
a(V2350728631
p3503
I187
tp3504
a(V32527206
p3505
I60
tp3506
a(V1297151796
p3507
I401
tp3508
a(V317253682
p3509
I1593
tp3510
a(V1300435622
p3511
I343
tp3512
a(V460986990
p3513
I69
tp3514
a(V76520529
p3515
I213
tp3516
a(V2321168600
p3517
I687
tp3518
a(V20868465
p3519
I725
tp3520
a(V456637619
p3521
I225
tp3522
a(V291062334
p3523
I567
tp3524
a(V89482087
p3525
I135
tp3526
a(V130159237
p3527
I210
tp3528
a(V2428916787
p3529
I161
tp3530
a(V2857452783
p3531
I33
tp3532
a(V586911476
p3533
I70
tp3534
a(V38837865
p3535
I1455
tp3536
a(V39979990
p3537
I174
tp3538
a(V575887522
p3539
I146
tp3540
a(V578605668
p3541
I444
tp3542
a(V43864286
p3543
I538
tp3544
a(V20822263
p3545
I639
tp3546
a(V23676481
p3547
I673
tp3548
a(V432521961
p3549
I166
tp3550
a(V20738175
p3551
I299
tp3552
a(V909753109
p3553
I165
tp3554
a(V977532660
p3555
I770
tp3556
a(V60927389
p3557
I25
tp3558
a(V1363221768
p3559
I132
tp3560
a(V16829101
p3561
I910
tp3562
a(V66172538
p3563
I6238
tp3564
a(V151100527
p3565
I863
tp3566
a(V83837948
p3567
I157
tp3568
a(V3258973674
p3569
I30
tp3570
a(V55055086
p3571
I273
tp3572
a(V1640681918
p3573
I2103
tp3574
a(V425490223
p3575
I58
tp3576
a(V462274812
p3577
I1363
tp3578
a(V1255023650
p3579
I110
tp3580
a(V3245624010
p3581
I289
tp3582
a(V369315927
p3583
I158
tp3584
a(V2595648880
p3585
I58
tp3586
a(V195368080
p3587
I250
tp3588
a(V17049899
p3589
I13569
tp3590
a(V28936661
p3591
I134
tp3592
a(V1541904974
p3593
I154
tp3594
a(V71885806
p3595
I640
tp3596
a.